
GccApplication2.elf:     file format elf32-avr

Sections:
Idx Name          Size      VMA       LMA       File off  Algn
  0 .data         0000062a  00800100  0000127c  00001310  2**0
                  CONTENTS, ALLOC, LOAD, DATA
  1 .text         0000127c  00000000  00000000  00000094  2**1
                  CONTENTS, ALLOC, LOAD, READONLY, CODE
  2 .bss          00000004  0080072a  0080072a  0000193a  2**0
                  ALLOC
  3 .comment      00000030  00000000  00000000  0000193a  2**0
                  CONTENTS, READONLY
  4 .note.gnu.avr.deviceinfo 00000040  00000000  00000000  0000196c  2**2
                  CONTENTS, READONLY
  5 .debug_aranges 00000080  00000000  00000000  000019ac  2**0
                  CONTENTS, READONLY, DEBUGGING
  6 .debug_info   000034b6  00000000  00000000  00001a2c  2**0
                  CONTENTS, READONLY, DEBUGGING
  7 .debug_abbrev 00000820  00000000  00000000  00004ee2  2**0
                  CONTENTS, READONLY, DEBUGGING
  8 .debug_line   00001393  00000000  00000000  00005702  2**0
                  CONTENTS, READONLY, DEBUGGING
  9 .debug_frame  00000198  00000000  00000000  00006a98  2**2
                  CONTENTS, READONLY, DEBUGGING
 10 .debug_str    00000543  00000000  00000000  00006c30  2**0
                  CONTENTS, READONLY, DEBUGGING
 11 .debug_loc    000035c9  00000000  00000000  00007173  2**0
                  CONTENTS, READONLY, DEBUGGING
 12 .debug_ranges 00000070  00000000  00000000  0000a73c  2**0
                  CONTENTS, READONLY, DEBUGGING

Disassembly of section .text:

00000000 <__vectors>:
       0:	0c 94 34 00 	jmp	0x68	; 0x68 <__ctors_end>
       4:	0c 94 9e 07 	jmp	0xf3c	; 0xf3c <__vector_1>
       8:	0c 94 c2 07 	jmp	0xf84	; 0xf84 <__vector_2>
       c:	0c 94 51 00 	jmp	0xa2	; 0xa2 <__bad_interrupt>
      10:	0c 94 51 00 	jmp	0xa2	; 0xa2 <__bad_interrupt>
      14:	0c 94 51 00 	jmp	0xa2	; 0xa2 <__bad_interrupt>
      18:	0c 94 51 00 	jmp	0xa2	; 0xa2 <__bad_interrupt>
      1c:	0c 94 51 00 	jmp	0xa2	; 0xa2 <__bad_interrupt>
      20:	0c 94 51 00 	jmp	0xa2	; 0xa2 <__bad_interrupt>
      24:	0c 94 51 00 	jmp	0xa2	; 0xa2 <__bad_interrupt>
      28:	0c 94 51 00 	jmp	0xa2	; 0xa2 <__bad_interrupt>
      2c:	0c 94 51 00 	jmp	0xa2	; 0xa2 <__bad_interrupt>
      30:	0c 94 51 00 	jmp	0xa2	; 0xa2 <__bad_interrupt>
      34:	0c 94 51 00 	jmp	0xa2	; 0xa2 <__bad_interrupt>
      38:	0c 94 51 00 	jmp	0xa2	; 0xa2 <__bad_interrupt>
      3c:	0c 94 51 00 	jmp	0xa2	; 0xa2 <__bad_interrupt>
      40:	0c 94 51 00 	jmp	0xa2	; 0xa2 <__bad_interrupt>
      44:	0c 94 51 00 	jmp	0xa2	; 0xa2 <__bad_interrupt>
      48:	0c 94 51 00 	jmp	0xa2	; 0xa2 <__bad_interrupt>
      4c:	0c 94 51 00 	jmp	0xa2	; 0xa2 <__bad_interrupt>
      50:	0c 94 51 00 	jmp	0xa2	; 0xa2 <__bad_interrupt>
      54:	0c 94 51 00 	jmp	0xa2	; 0xa2 <__bad_interrupt>
      58:	0c 94 51 00 	jmp	0xa2	; 0xa2 <__bad_interrupt>
      5c:	0c 94 51 00 	jmp	0xa2	; 0xa2 <__bad_interrupt>
      60:	0c 94 51 00 	jmp	0xa2	; 0xa2 <__bad_interrupt>
      64:	0c 94 51 00 	jmp	0xa2	; 0xa2 <__bad_interrupt>

00000068 <__ctors_end>:
      68:	11 24       	eor	r1, r1
      6a:	1f be       	out	0x3f, r1	; 63
      6c:	cf ef       	ldi	r28, 0xFF	; 255
      6e:	d8 e0       	ldi	r29, 0x08	; 8
      70:	de bf       	out	0x3e, r29	; 62
      72:	cd bf       	out	0x3d, r28	; 61

00000074 <__do_copy_data>:
      74:	17 e0       	ldi	r17, 0x07	; 7
      76:	a0 e0       	ldi	r26, 0x00	; 0
      78:	b1 e0       	ldi	r27, 0x01	; 1
      7a:	ec e7       	ldi	r30, 0x7C	; 124
      7c:	f2 e1       	ldi	r31, 0x12	; 18
      7e:	02 c0       	rjmp	.+4      	; 0x84 <__do_copy_data+0x10>
      80:	05 90       	lpm	r0, Z+
      82:	0d 92       	st	X+, r0
      84:	aa 32       	cpi	r26, 0x2A	; 42
      86:	b1 07       	cpc	r27, r17
      88:	d9 f7       	brne	.-10     	; 0x80 <__do_copy_data+0xc>

0000008a <__do_clear_bss>:
      8a:	27 e0       	ldi	r18, 0x07	; 7
      8c:	aa e2       	ldi	r26, 0x2A	; 42
      8e:	b7 e0       	ldi	r27, 0x07	; 7
      90:	01 c0       	rjmp	.+2      	; 0x94 <.do_clear_bss_start>

00000092 <.do_clear_bss_loop>:
      92:	1d 92       	st	X+, r1

00000094 <.do_clear_bss_start>:
      94:	ae 32       	cpi	r26, 0x2E	; 46
      96:	b2 07       	cpc	r27, r18
      98:	e1 f7       	brne	.-8      	; 0x92 <.do_clear_bss_loop>
      9a:	0e 94 ca 08 	call	0x1194	; 0x1194 <main>
      9e:	0c 94 3c 09 	jmp	0x1278	; 0x1278 <_exit>

000000a2 <__bad_interrupt>:
      a2:	0c 94 00 00 	jmp	0	; 0x0 <__vectors>

000000a6 <_Z9play_tonejh>:
	8, 8, 8, 8, 8, 8, 8, 8, 8, 8, 4, 4,
	8, 8, 8, 8, 8, 8, 8, 8, 8, 8, 4, 2,
	
	
};
void play_tone(uint16_t delay, uint8_t duration) {
      a6:	fc 01       	movw	r30, r24
	
	
	// duration = 2*delay * cycles (all in same units)
	// cycles = 10000 * duration / delay / 2
	// cycles = 100 * duration / (delay/50)
	uint16_t tmp = 100 * duration;
      a8:	84 e6       	ldi	r24, 0x64	; 100
      aa:	68 9f       	mul	r22, r24
      ac:	a0 01       	movw	r20, r0
      ae:	11 24       	eor	r1, r1
	uint16_t delaysm = delay / 50;
      b0:	9f 01       	movw	r18, r30
      b2:	36 95       	lsr	r19
      b4:	27 95       	ror	r18
      b6:	ab e7       	ldi	r26, 0x7B	; 123
      b8:	b4 e1       	ldi	r27, 0x14	; 20
      ba:	0e 94 2d 09 	call	0x125a	; 0x125a <__umulhisi3>
      be:	bc 01       	movw	r22, r24
      c0:	76 95       	lsr	r23
      c2:	67 95       	ror	r22
	uint16_t cycles = tmp / delaysm;
      c4:	ca 01       	movw	r24, r20
      c6:	0e 94 05 09 	call	0x120a	; 0x120a <__udivmodhi4>
	
	while(cycles > 0) {
      ca:	61 15       	cp	r22, r1
      cc:	71 05       	cpc	r23, r1
      ce:	09 f4       	brne	.+2      	; 0xd2 <_Z9play_tonejh+0x2c>
      d0:	28 c7       	rjmp	.+3664   	; 0xf22 <__stack+0x623>
		if (delay==NOTE_B0){
      d2:	e2 37       	cpi	r30, 0x72	; 114
      d4:	93 e1       	ldi	r25, 0x13	; 19
      d6:	f9 07       	cpc	r31, r25
      d8:	91 f4       	brne	.+36     	; 0xfe <_Z9play_tonejh+0x58>
			PORTD |= (1<<PD1);
      da:	8b b1       	in	r24, 0x0b	; 11
      dc:	82 60       	ori	r24, 0x02	; 2
      de:	8b b9       	out	0x0b, r24	; 11
	#else
		//round up by default
		__ticks_dc = (uint32_t)(ceil(fabs(__tmp)));
	#endif

	__builtin_avr_delay_cycles(__ticks_dc);
      e0:	83 ee       	ldi	r24, 0xE3	; 227
      e2:	96 e2       	ldi	r25, 0x26	; 38
      e4:	01 97       	sbiw	r24, 0x01	; 1
      e6:	f1 f7       	brne	.-4      	; 0xe4 <_Z9play_tonejh+0x3e>
      e8:	00 c0       	rjmp	.+0      	; 0xea <_Z9play_tonejh+0x44>
      ea:	00 00       	nop
			_delay_us(4978);
			PORTD &= ~(1<<PD1);
      ec:	8b b1       	in	r24, 0x0b	; 11
      ee:	8d 7f       	andi	r24, 0xFD	; 253
      f0:	8b b9       	out	0x0b, r24	; 11
      f2:	83 ee       	ldi	r24, 0xE3	; 227
      f4:	96 e2       	ldi	r25, 0x26	; 38
      f6:	01 97       	sbiw	r24, 0x01	; 1
      f8:	f1 f7       	brne	.-4      	; 0xf6 <_Z9play_tonejh+0x50>
      fa:	00 c0       	rjmp	.+0      	; 0xfc <_Z9play_tonejh+0x56>
      fc:	00 00       	nop
		_delay_us(4978);}

		if (delay==NOTE_C1){
      fe:	eb 35       	cpi	r30, 0x5B	; 91
     100:	92 e1       	ldi	r25, 0x12	; 18
     102:	f9 07       	cpc	r31, r25
     104:	91 f4       	brne	.+36     	; 0x12a <_Z9play_tonejh+0x84>
			PORTD |= (1<<PD1);
     106:	8b b1       	in	r24, 0x0b	; 11
     108:	82 60       	ori	r24, 0x02	; 2
     10a:	8b b9       	out	0x0b, r24	; 11
     10c:	85 eb       	ldi	r24, 0xB5	; 181
     10e:	94 e2       	ldi	r25, 0x24	; 36
     110:	01 97       	sbiw	r24, 0x01	; 1
     112:	f1 f7       	brne	.-4      	; 0x110 <_Z9play_tonejh+0x6a>
     114:	00 c0       	rjmp	.+0      	; 0x116 <_Z9play_tonejh+0x70>
     116:	00 00       	nop
			_delay_us(4699);
			PORTD &= ~(1<<PD1);
     118:	8b b1       	in	r24, 0x0b	; 11
     11a:	8d 7f       	andi	r24, 0xFD	; 253
     11c:	8b b9       	out	0x0b, r24	; 11
     11e:	85 eb       	ldi	r24, 0xB5	; 181
     120:	94 e2       	ldi	r25, 0x24	; 36
     122:	01 97       	sbiw	r24, 0x01	; 1
     124:	f1 f7       	brne	.-4      	; 0x122 <_Z9play_tonejh+0x7c>
     126:	00 c0       	rjmp	.+0      	; 0x128 <_Z9play_tonejh+0x82>
     128:	00 00       	nop
		_delay_us(4699);}

		if (delay==NOTE_CS1){
     12a:	e3 35       	cpi	r30, 0x53	; 83
     12c:	91 e1       	ldi	r25, 0x11	; 17
     12e:	f9 07       	cpc	r31, r25
     130:	91 f4       	brne	.+36     	; 0x156 <_Z9play_tonejh+0xb0>
			PORTD |= (1<<PD1);
     132:	8b b1       	in	r24, 0x0b	; 11
     134:	82 60       	ori	r24, 0x02	; 2
     136:	8b b9       	out	0x0b, r24	; 11
     138:	85 ea       	ldi	r24, 0xA5	; 165
     13a:	92 e2       	ldi	r25, 0x22	; 34
     13c:	01 97       	sbiw	r24, 0x01	; 1
     13e:	f1 f7       	brne	.-4      	; 0x13c <_Z9play_tonejh+0x96>
     140:	00 c0       	rjmp	.+0      	; 0x142 <_Z9play_tonejh+0x9c>
     142:	00 00       	nop
			_delay_us(4435);
			PORTD &= ~(1<<PD1);
     144:	8b b1       	in	r24, 0x0b	; 11
     146:	8d 7f       	andi	r24, 0xFD	; 253
     148:	8b b9       	out	0x0b, r24	; 11
     14a:	85 ea       	ldi	r24, 0xA5	; 165
     14c:	92 e2       	ldi	r25, 0x22	; 34
     14e:	01 97       	sbiw	r24, 0x01	; 1
     150:	f1 f7       	brne	.-4      	; 0x14e <_Z9play_tonejh+0xa8>
     152:	00 c0       	rjmp	.+0      	; 0x154 <_Z9play_tonejh+0xae>
     154:	00 00       	nop
		_delay_us(4435);}

		if (delay==NOTE_D1){
     156:	ea 35       	cpi	r30, 0x5A	; 90
     158:	90 e1       	ldi	r25, 0x10	; 16
     15a:	f9 07       	cpc	r31, r25
     15c:	91 f4       	brne	.+36     	; 0x182 <_Z9play_tonejh+0xdc>
			PORTD |= (1<<PD1);
     15e:	8b b1       	in	r24, 0x0b	; 11
     160:	82 60       	ori	r24, 0x02	; 2
     162:	8b b9       	out	0x0b, r24	; 11
     164:	83 eb       	ldi	r24, 0xB3	; 179
     166:	90 e2       	ldi	r25, 0x20	; 32
     168:	01 97       	sbiw	r24, 0x01	; 1
     16a:	f1 f7       	brne	.-4      	; 0x168 <_Z9play_tonejh+0xc2>
     16c:	00 c0       	rjmp	.+0      	; 0x16e <_Z9play_tonejh+0xc8>
     16e:	00 00       	nop
			_delay_us(4186);
			PORTD &= ~(1<<PD1);
     170:	8b b1       	in	r24, 0x0b	; 11
     172:	8d 7f       	andi	r24, 0xFD	; 253
     174:	8b b9       	out	0x0b, r24	; 11
     176:	83 eb       	ldi	r24, 0xB3	; 179
     178:	90 e2       	ldi	r25, 0x20	; 32
     17a:	01 97       	sbiw	r24, 0x01	; 1
     17c:	f1 f7       	brne	.-4      	; 0x17a <_Z9play_tonejh+0xd4>
     17e:	00 c0       	rjmp	.+0      	; 0x180 <_Z9play_tonejh+0xda>
     180:	00 00       	nop
		_delay_us(4186);}

		if (delay==NOTE_DS1){
     182:	ef 36       	cpi	r30, 0x6F	; 111
     184:	9f e0       	ldi	r25, 0x0F	; 15
     186:	f9 07       	cpc	r31, r25
     188:	91 f4       	brne	.+36     	; 0x1ae <_Z9play_tonejh+0x108>
			PORTD |= (1<<PD1);
     18a:	8b b1       	in	r24, 0x0b	; 11
     18c:	82 60       	ori	r24, 0x02	; 2
     18e:	8b b9       	out	0x0b, r24	; 11
     190:	8d ed       	ldi	r24, 0xDD	; 221
     192:	9e e1       	ldi	r25, 0x1E	; 30
     194:	01 97       	sbiw	r24, 0x01	; 1
     196:	f1 f7       	brne	.-4      	; 0x194 <_Z9play_tonejh+0xee>
     198:	00 c0       	rjmp	.+0      	; 0x19a <_Z9play_tonejh+0xf4>
     19a:	00 00       	nop
			_delay_us(3951);
			PORTD &= ~(1<<PD1);
     19c:	8b b1       	in	r24, 0x0b	; 11
     19e:	8d 7f       	andi	r24, 0xFD	; 253
     1a0:	8b b9       	out	0x0b, r24	; 11
     1a2:	8d ed       	ldi	r24, 0xDD	; 221
     1a4:	9e e1       	ldi	r25, 0x1E	; 30
     1a6:	01 97       	sbiw	r24, 0x01	; 1
     1a8:	f1 f7       	brne	.-4      	; 0x1a6 <_Z9play_tonejh+0x100>
     1aa:	00 c0       	rjmp	.+0      	; 0x1ac <_Z9play_tonejh+0x106>
     1ac:	00 00       	nop
		_delay_us(3951);}

		if (delay==NOTE_E1){
     1ae:	e1 39       	cpi	r30, 0x91	; 145
     1b0:	9e e0       	ldi	r25, 0x0E	; 14
     1b2:	f9 07       	cpc	r31, r25
     1b4:	91 f4       	brne	.+36     	; 0x1da <_Z9play_tonejh+0x134>
			PORTD |= (1<<PD1);
     1b6:	8b b1       	in	r24, 0x0b	; 11
     1b8:	82 60       	ori	r24, 0x02	; 2
     1ba:	8b b9       	out	0x0b, r24	; 11
     1bc:	81 e2       	ldi	r24, 0x21	; 33
     1be:	9d e1       	ldi	r25, 0x1D	; 29
     1c0:	01 97       	sbiw	r24, 0x01	; 1
     1c2:	f1 f7       	brne	.-4      	; 0x1c0 <_Z9play_tonejh+0x11a>
     1c4:	00 c0       	rjmp	.+0      	; 0x1c6 <_Z9play_tonejh+0x120>
     1c6:	00 00       	nop
			_delay_us(3729);
			PORTD &= ~(1<<PD1);
     1c8:	8b b1       	in	r24, 0x0b	; 11
     1ca:	8d 7f       	andi	r24, 0xFD	; 253
     1cc:	8b b9       	out	0x0b, r24	; 11
     1ce:	81 e2       	ldi	r24, 0x21	; 33
     1d0:	9d e1       	ldi	r25, 0x1D	; 29
     1d2:	01 97       	sbiw	r24, 0x01	; 1
     1d4:	f1 f7       	brne	.-4      	; 0x1d2 <_Z9play_tonejh+0x12c>
     1d6:	00 c0       	rjmp	.+0      	; 0x1d8 <_Z9play_tonejh+0x132>
     1d8:	00 00       	nop
		_delay_us(3729);}

		if (delay==NOTE_F1){
     1da:	e0 3c       	cpi	r30, 0xC0	; 192
     1dc:	9d e0       	ldi	r25, 0x0D	; 13
     1de:	f9 07       	cpc	r31, r25
     1e0:	91 f4       	brne	.+36     	; 0x206 <_Z9play_tonejh+0x160>
			PORTD |= (1<<PD1);
     1e2:	8b b1       	in	r24, 0x0b	; 11
     1e4:	82 60       	ori	r24, 0x02	; 2
     1e6:	8b b9       	out	0x0b, r24	; 11
     1e8:	8f e7       	ldi	r24, 0x7F	; 127
     1ea:	9b e1       	ldi	r25, 0x1B	; 27
     1ec:	01 97       	sbiw	r24, 0x01	; 1
     1ee:	f1 f7       	brne	.-4      	; 0x1ec <_Z9play_tonejh+0x146>
     1f0:	00 c0       	rjmp	.+0      	; 0x1f2 <_Z9play_tonejh+0x14c>
     1f2:	00 00       	nop
			_delay_us(3520);
			PORTD &= ~(1<<PD1);
     1f4:	8b b1       	in	r24, 0x0b	; 11
     1f6:	8d 7f       	andi	r24, 0xFD	; 253
     1f8:	8b b9       	out	0x0b, r24	; 11
     1fa:	8f e7       	ldi	r24, 0x7F	; 127
     1fc:	9b e1       	ldi	r25, 0x1B	; 27
     1fe:	01 97       	sbiw	r24, 0x01	; 1
     200:	f1 f7       	brne	.-4      	; 0x1fe <_Z9play_tonejh+0x158>
     202:	00 c0       	rjmp	.+0      	; 0x204 <_Z9play_tonejh+0x15e>
     204:	00 00       	nop
		_delay_us(3520);}

		if (delay==NOTE_FS1){
     206:	ea 3f       	cpi	r30, 0xFA	; 250
     208:	9c e0       	ldi	r25, 0x0C	; 12
     20a:	f9 07       	cpc	r31, r25
     20c:	91 f4       	brne	.+36     	; 0x232 <_Z9play_tonejh+0x18c>
			PORTD |= (1<<PD1);
     20e:	8b b1       	in	r24, 0x0b	; 11
     210:	82 60       	ori	r24, 0x02	; 2
     212:	8b b9       	out	0x0b, r24	; 11
     214:	83 ef       	ldi	r24, 0xF3	; 243
     216:	99 e1       	ldi	r25, 0x19	; 25
     218:	01 97       	sbiw	r24, 0x01	; 1
     21a:	f1 f7       	brne	.-4      	; 0x218 <_Z9play_tonejh+0x172>
     21c:	00 c0       	rjmp	.+0      	; 0x21e <_Z9play_tonejh+0x178>
     21e:	00 00       	nop
			_delay_us(3322);
			PORTD &= ~(1<<PD1);
     220:	8b b1       	in	r24, 0x0b	; 11
     222:	8d 7f       	andi	r24, 0xFD	; 253
     224:	8b b9       	out	0x0b, r24	; 11
     226:	83 ef       	ldi	r24, 0xF3	; 243
     228:	99 e1       	ldi	r25, 0x19	; 25
     22a:	01 97       	sbiw	r24, 0x01	; 1
     22c:	f1 f7       	brne	.-4      	; 0x22a <_Z9play_tonejh+0x184>
     22e:	00 c0       	rjmp	.+0      	; 0x230 <_Z9play_tonejh+0x18a>
     230:	00 00       	nop
		_delay_us(3322);}

		if (delay==NOTE_G1){
     232:	e0 34       	cpi	r30, 0x40	; 64
     234:	9c e0       	ldi	r25, 0x0C	; 12
     236:	f9 07       	cpc	r31, r25
     238:	91 f4       	brne	.+36     	; 0x25e <_Z9play_tonejh+0x1b8>
			PORTD |= (1<<PD1);
     23a:	8b b1       	in	r24, 0x0b	; 11
     23c:	82 60       	ori	r24, 0x02	; 2
     23e:	8b b9       	out	0x0b, r24	; 11
     240:	8f e7       	ldi	r24, 0x7F	; 127
     242:	98 e1       	ldi	r25, 0x18	; 24
     244:	01 97       	sbiw	r24, 0x01	; 1
     246:	f1 f7       	brne	.-4      	; 0x244 <_Z9play_tonejh+0x19e>
     248:	00 c0       	rjmp	.+0      	; 0x24a <_Z9play_tonejh+0x1a4>
     24a:	00 00       	nop
			_delay_us(3136);
			PORTD &= ~(1<<PD1);
     24c:	8b b1       	in	r24, 0x0b	; 11
     24e:	8d 7f       	andi	r24, 0xFD	; 253
     250:	8b b9       	out	0x0b, r24	; 11
     252:	8f e7       	ldi	r24, 0x7F	; 127
     254:	98 e1       	ldi	r25, 0x18	; 24
     256:	01 97       	sbiw	r24, 0x01	; 1
     258:	f1 f7       	brne	.-4      	; 0x256 <_Z9play_tonejh+0x1b0>
     25a:	00 c0       	rjmp	.+0      	; 0x25c <_Z9play_tonejh+0x1b6>
     25c:	00 00       	nop
		_delay_us(3136);}

		if (delay==NOTE_GS1){
     25e:	e0 39       	cpi	r30, 0x90	; 144
     260:	9b e0       	ldi	r25, 0x0B	; 11
     262:	f9 07       	cpc	r31, r25
     264:	91 f4       	brne	.+36     	; 0x28a <_Z9play_tonejh+0x1e4>
			PORTD |= (1<<PD1);
     266:	8b b1       	in	r24, 0x0b	; 11
     268:	82 60       	ori	r24, 0x02	; 2
     26a:	8b b9       	out	0x0b, r24	; 11
     26c:	8f e1       	ldi	r24, 0x1F	; 31
     26e:	97 e1       	ldi	r25, 0x17	; 23
     270:	01 97       	sbiw	r24, 0x01	; 1
     272:	f1 f7       	brne	.-4      	; 0x270 <_Z9play_tonejh+0x1ca>
     274:	00 c0       	rjmp	.+0      	; 0x276 <_Z9play_tonejh+0x1d0>
     276:	00 00       	nop
			_delay_us(2960);
			PORTD &= ~(1<<PD1);
     278:	8b b1       	in	r24, 0x0b	; 11
     27a:	8d 7f       	andi	r24, 0xFD	; 253
     27c:	8b b9       	out	0x0b, r24	; 11
     27e:	8f e1       	ldi	r24, 0x1F	; 31
     280:	97 e1       	ldi	r25, 0x17	; 23
     282:	01 97       	sbiw	r24, 0x01	; 1
     284:	f1 f7       	brne	.-4      	; 0x282 <_Z9play_tonejh+0x1dc>
     286:	00 c0       	rjmp	.+0      	; 0x288 <_Z9play_tonejh+0x1e2>
     288:	00 00       	nop
		_delay_us(2960);}

		if (delay==NOTE_A1){
     28a:	ea 3e       	cpi	r30, 0xEA	; 234
     28c:	9a e0       	ldi	r25, 0x0A	; 10
     28e:	f9 07       	cpc	r31, r25
     290:	91 f4       	brne	.+36     	; 0x2b6 <_Z9play_tonejh+0x210>
			PORTD |= (1<<PD1);
     292:	8b b1       	in	r24, 0x0b	; 11
     294:	82 60       	ori	r24, 0x02	; 2
     296:	8b b9       	out	0x0b, r24	; 11
     298:	83 ed       	ldi	r24, 0xD3	; 211
     29a:	95 e1       	ldi	r25, 0x15	; 21
     29c:	01 97       	sbiw	r24, 0x01	; 1
     29e:	f1 f7       	brne	.-4      	; 0x29c <_Z9play_tonejh+0x1f6>
     2a0:	00 c0       	rjmp	.+0      	; 0x2a2 <_Z9play_tonejh+0x1fc>
     2a2:	00 00       	nop
			_delay_us(2794);
			PORTD &= ~(1<<PD1);
     2a4:	8b b1       	in	r24, 0x0b	; 11
     2a6:	8d 7f       	andi	r24, 0xFD	; 253
     2a8:	8b b9       	out	0x0b, r24	; 11
     2aa:	83 ed       	ldi	r24, 0xD3	; 211
     2ac:	95 e1       	ldi	r25, 0x15	; 21
     2ae:	01 97       	sbiw	r24, 0x01	; 1
     2b0:	f1 f7       	brne	.-4      	; 0x2ae <_Z9play_tonejh+0x208>
     2b2:	00 c0       	rjmp	.+0      	; 0x2b4 <_Z9play_tonejh+0x20e>
     2b4:	00 00       	nop
		_delay_us(2794);}

		if (delay==NOTE_AS1){
     2b6:	ed 34       	cpi	r30, 0x4D	; 77
     2b8:	9a e0       	ldi	r25, 0x0A	; 10
     2ba:	f9 07       	cpc	r31, r25
     2bc:	91 f4       	brne	.+36     	; 0x2e2 <_Z9play_tonejh+0x23c>
			PORTD |= (1<<PD1);
     2be:	8b b1       	in	r24, 0x0b	; 11
     2c0:	82 60       	ori	r24, 0x02	; 2
     2c2:	8b b9       	out	0x0b, r24	; 11
     2c4:	89 e9       	ldi	r24, 0x99	; 153
     2c6:	94 e1       	ldi	r25, 0x14	; 20
     2c8:	01 97       	sbiw	r24, 0x01	; 1
     2ca:	f1 f7       	brne	.-4      	; 0x2c8 <_Z9play_tonejh+0x222>
     2cc:	00 c0       	rjmp	.+0      	; 0x2ce <_Z9play_tonejh+0x228>
     2ce:	00 00       	nop
			_delay_us(2637);
			PORTD &= ~(1<<PD1);
     2d0:	8b b1       	in	r24, 0x0b	; 11
     2d2:	8d 7f       	andi	r24, 0xFD	; 253
     2d4:	8b b9       	out	0x0b, r24	; 11
     2d6:	89 e9       	ldi	r24, 0x99	; 153
     2d8:	94 e1       	ldi	r25, 0x14	; 20
     2da:	01 97       	sbiw	r24, 0x01	; 1
     2dc:	f1 f7       	brne	.-4      	; 0x2da <_Z9play_tonejh+0x234>
     2de:	00 c0       	rjmp	.+0      	; 0x2e0 <_Z9play_tonejh+0x23a>
     2e0:	00 00       	nop
		_delay_us(2637);}

		if (delay==NOTE_B1){
     2e2:	e9 3b       	cpi	r30, 0xB9	; 185
     2e4:	99 e0       	ldi	r25, 0x09	; 9
     2e6:	f9 07       	cpc	r31, r25
     2e8:	91 f4       	brne	.+36     	; 0x30e <_Z9play_tonejh+0x268>
			PORTD |= (1<<PD1);
     2ea:	8b b1       	in	r24, 0x0b	; 11
     2ec:	82 60       	ori	r24, 0x02	; 2
     2ee:	8b b9       	out	0x0b, r24	; 11
     2f0:	81 e7       	ldi	r24, 0x71	; 113
     2f2:	93 e1       	ldi	r25, 0x13	; 19
     2f4:	01 97       	sbiw	r24, 0x01	; 1
     2f6:	f1 f7       	brne	.-4      	; 0x2f4 <_Z9play_tonejh+0x24e>
     2f8:	00 c0       	rjmp	.+0      	; 0x2fa <_Z9play_tonejh+0x254>
     2fa:	00 00       	nop
			_delay_us(2489);
			PORTD &= ~(1<<PD1);
     2fc:	8b b1       	in	r24, 0x0b	; 11
     2fe:	8d 7f       	andi	r24, 0xFD	; 253
     300:	8b b9       	out	0x0b, r24	; 11
     302:	81 e7       	ldi	r24, 0x71	; 113
     304:	93 e1       	ldi	r25, 0x13	; 19
     306:	01 97       	sbiw	r24, 0x01	; 1
     308:	f1 f7       	brne	.-4      	; 0x306 <_Z9play_tonejh+0x260>
     30a:	00 c0       	rjmp	.+0      	; 0x30c <_Z9play_tonejh+0x266>
     30c:	00 00       	nop
		_delay_us(2489);}

		if (delay==NOTE_C2){
     30e:	ed 32       	cpi	r30, 0x2D	; 45
     310:	99 e0       	ldi	r25, 0x09	; 9
     312:	f9 07       	cpc	r31, r25
     314:	91 f4       	brne	.+36     	; 0x33a <_Z9play_tonejh+0x294>
			PORTD |= (1<<PD1);
     316:	8b b1       	in	r24, 0x0b	; 11
     318:	82 60       	ori	r24, 0x02	; 2
     31a:	8b b9       	out	0x0b, r24	; 11
     31c:	89 e5       	ldi	r24, 0x59	; 89
     31e:	92 e1       	ldi	r25, 0x12	; 18
     320:	01 97       	sbiw	r24, 0x01	; 1
     322:	f1 f7       	brne	.-4      	; 0x320 <_Z9play_tonejh+0x27a>
     324:	00 c0       	rjmp	.+0      	; 0x326 <_Z9play_tonejh+0x280>
     326:	00 00       	nop
			_delay_us(2349);
			PORTD &= ~(1<<PD1);
     328:	8b b1       	in	r24, 0x0b	; 11
     32a:	8d 7f       	andi	r24, 0xFD	; 253
     32c:	8b b9       	out	0x0b, r24	; 11
     32e:	89 e5       	ldi	r24, 0x59	; 89
     330:	92 e1       	ldi	r25, 0x12	; 18
     332:	01 97       	sbiw	r24, 0x01	; 1
     334:	f1 f7       	brne	.-4      	; 0x332 <_Z9play_tonejh+0x28c>
     336:	00 c0       	rjmp	.+0      	; 0x338 <_Z9play_tonejh+0x292>
     338:	00 00       	nop
		_delay_us(2349);}

		if (delay==NOTE_CS2){
     33a:	e9 3a       	cpi	r30, 0xA9	; 169
     33c:	98 e0       	ldi	r25, 0x08	; 8
     33e:	f9 07       	cpc	r31, r25
     340:	91 f4       	brne	.+36     	; 0x366 <_Z9play_tonejh+0x2c0>
			PORTD |= (1<<PD1);
     342:	8b b1       	in	r24, 0x0b	; 11
     344:	82 60       	ori	r24, 0x02	; 2
     346:	8b b9       	out	0x0b, r24	; 11
     348:	81 e5       	ldi	r24, 0x51	; 81
     34a:	91 e1       	ldi	r25, 0x11	; 17
     34c:	01 97       	sbiw	r24, 0x01	; 1
     34e:	f1 f7       	brne	.-4      	; 0x34c <_Z9play_tonejh+0x2a6>
     350:	00 c0       	rjmp	.+0      	; 0x352 <_Z9play_tonejh+0x2ac>
     352:	00 00       	nop
			_delay_us(2217);
			PORTD &= ~(1<<PD1);
     354:	8b b1       	in	r24, 0x0b	; 11
     356:	8d 7f       	andi	r24, 0xFD	; 253
     358:	8b b9       	out	0x0b, r24	; 11
     35a:	81 e5       	ldi	r24, 0x51	; 81
     35c:	91 e1       	ldi	r25, 0x11	; 17
     35e:	01 97       	sbiw	r24, 0x01	; 1
     360:	f1 f7       	brne	.-4      	; 0x35e <_Z9play_tonejh+0x2b8>
     362:	00 c0       	rjmp	.+0      	; 0x364 <_Z9play_tonejh+0x2be>
     364:	00 00       	nop
		_delay_us(2217);}

		if (delay==NOTE_D2){
     366:	ed 32       	cpi	r30, 0x2D	; 45
     368:	98 e0       	ldi	r25, 0x08	; 8
     36a:	f9 07       	cpc	r31, r25
     36c:	91 f4       	brne	.+36     	; 0x392 <_Z9play_tonejh+0x2ec>
			PORTD |= (1<<PD1);
     36e:	8b b1       	in	r24, 0x0b	; 11
     370:	82 60       	ori	r24, 0x02	; 2
     372:	8b b9       	out	0x0b, r24	; 11
     374:	89 e5       	ldi	r24, 0x59	; 89
     376:	90 e1       	ldi	r25, 0x10	; 16
     378:	01 97       	sbiw	r24, 0x01	; 1
     37a:	f1 f7       	brne	.-4      	; 0x378 <_Z9play_tonejh+0x2d2>
     37c:	00 c0       	rjmp	.+0      	; 0x37e <_Z9play_tonejh+0x2d8>
     37e:	00 00       	nop
			_delay_us(2093);
			PORTD &= ~(1<<PD1);
     380:	8b b1       	in	r24, 0x0b	; 11
     382:	8d 7f       	andi	r24, 0xFD	; 253
     384:	8b b9       	out	0x0b, r24	; 11
     386:	89 e5       	ldi	r24, 0x59	; 89
     388:	90 e1       	ldi	r25, 0x10	; 16
     38a:	01 97       	sbiw	r24, 0x01	; 1
     38c:	f1 f7       	brne	.-4      	; 0x38a <_Z9play_tonejh+0x2e4>
     38e:	00 c0       	rjmp	.+0      	; 0x390 <_Z9play_tonejh+0x2ea>
     390:	00 00       	nop
		_delay_us(2093);}

		if (delay==NOTE_DS2){
     392:	e8 3b       	cpi	r30, 0xB8	; 184
     394:	97 e0       	ldi	r25, 0x07	; 7
     396:	f9 07       	cpc	r31, r25
     398:	91 f4       	brne	.+36     	; 0x3be <_Z9play_tonejh+0x318>
			PORTD |= (1<<PD1);
     39a:	8b b1       	in	r24, 0x0b	; 11
     39c:	82 60       	ori	r24, 0x02	; 2
     39e:	8b b9       	out	0x0b, r24	; 11
     3a0:	8f e6       	ldi	r24, 0x6F	; 111
     3a2:	9f e0       	ldi	r25, 0x0F	; 15
     3a4:	01 97       	sbiw	r24, 0x01	; 1
     3a6:	f1 f7       	brne	.-4      	; 0x3a4 <_Z9play_tonejh+0x2fe>
     3a8:	00 c0       	rjmp	.+0      	; 0x3aa <_Z9play_tonejh+0x304>
     3aa:	00 00       	nop
			_delay_us(1976);
			PORTD &= ~(1<<PD1);
     3ac:	8b b1       	in	r24, 0x0b	; 11
     3ae:	8d 7f       	andi	r24, 0xFD	; 253
     3b0:	8b b9       	out	0x0b, r24	; 11
     3b2:	8f e6       	ldi	r24, 0x6F	; 111
     3b4:	9f e0       	ldi	r25, 0x0F	; 15
     3b6:	01 97       	sbiw	r24, 0x01	; 1
     3b8:	f1 f7       	brne	.-4      	; 0x3b6 <_Z9play_tonejh+0x310>
     3ba:	00 c0       	rjmp	.+0      	; 0x3bc <_Z9play_tonejh+0x316>
     3bc:	00 00       	nop
		_delay_us(1976);}

		if (delay==NOTE_E2){
     3be:	e9 34       	cpi	r30, 0x49	; 73
     3c0:	97 e0       	ldi	r25, 0x07	; 7
     3c2:	f9 07       	cpc	r31, r25
     3c4:	91 f4       	brne	.+36     	; 0x3ea <_Z9play_tonejh+0x344>
			PORTD |= (1<<PD1);
     3c6:	8b b1       	in	r24, 0x0b	; 11
     3c8:	82 60       	ori	r24, 0x02	; 2
     3ca:	8b b9       	out	0x0b, r24	; 11
     3cc:	81 e9       	ldi	r24, 0x91	; 145
     3ce:	9e e0       	ldi	r25, 0x0E	; 14
     3d0:	01 97       	sbiw	r24, 0x01	; 1
     3d2:	f1 f7       	brne	.-4      	; 0x3d0 <_Z9play_tonejh+0x32a>
     3d4:	00 c0       	rjmp	.+0      	; 0x3d6 <_Z9play_tonejh+0x330>
     3d6:	00 00       	nop
			_delay_us(1865);
			PORTD &= ~(1<<PD1);
     3d8:	8b b1       	in	r24, 0x0b	; 11
     3da:	8d 7f       	andi	r24, 0xFD	; 253
     3dc:	8b b9       	out	0x0b, r24	; 11
     3de:	81 e9       	ldi	r24, 0x91	; 145
     3e0:	9e e0       	ldi	r25, 0x0E	; 14
     3e2:	01 97       	sbiw	r24, 0x01	; 1
     3e4:	f1 f7       	brne	.-4      	; 0x3e2 <_Z9play_tonejh+0x33c>
     3e6:	00 c0       	rjmp	.+0      	; 0x3e8 <_Z9play_tonejh+0x342>
     3e8:	00 00       	nop
		_delay_us(1865);}

		if (delay==NOTE_F2){
     3ea:	e0 3e       	cpi	r30, 0xE0	; 224
     3ec:	96 e0       	ldi	r25, 0x06	; 6
     3ee:	f9 07       	cpc	r31, r25
     3f0:	91 f4       	brne	.+36     	; 0x416 <__EEPROM_REGION_LENGTH__+0x16>
			PORTD |= (1<<PD1);
     3f2:	8b b1       	in	r24, 0x0b	; 11
     3f4:	82 60       	ori	r24, 0x02	; 2
     3f6:	8b b9       	out	0x0b, r24	; 11
     3f8:	8f eb       	ldi	r24, 0xBF	; 191
     3fa:	9d e0       	ldi	r25, 0x0D	; 13
     3fc:	01 97       	sbiw	r24, 0x01	; 1
     3fe:	f1 f7       	brne	.-4      	; 0x3fc <_Z9play_tonejh+0x356>
     400:	00 c0       	rjmp	.+0      	; 0x402 <__EEPROM_REGION_LENGTH__+0x2>
     402:	00 00       	nop
			_delay_us(1760);
			PORTD &= ~(1<<PD1);
     404:	8b b1       	in	r24, 0x0b	; 11
     406:	8d 7f       	andi	r24, 0xFD	; 253
     408:	8b b9       	out	0x0b, r24	; 11
     40a:	8f eb       	ldi	r24, 0xBF	; 191
     40c:	9d e0       	ldi	r25, 0x0D	; 13
     40e:	01 97       	sbiw	r24, 0x01	; 1
     410:	f1 f7       	brne	.-4      	; 0x40e <__EEPROM_REGION_LENGTH__+0xe>
     412:	00 c0       	rjmp	.+0      	; 0x414 <__EEPROM_REGION_LENGTH__+0x14>
     414:	00 00       	nop
		_delay_us(1760);}

		if (delay==NOTE_FS2){
     416:	ed 37       	cpi	r30, 0x7D	; 125
     418:	96 e0       	ldi	r25, 0x06	; 6
     41a:	f9 07       	cpc	r31, r25
     41c:	91 f4       	brne	.+36     	; 0x442 <__EEPROM_REGION_LENGTH__+0x42>
			PORTD |= (1<<PD1);
     41e:	8b b1       	in	r24, 0x0b	; 11
     420:	82 60       	ori	r24, 0x02	; 2
     422:	8b b9       	out	0x0b, r24	; 11
     424:	89 ef       	ldi	r24, 0xF9	; 249
     426:	9c e0       	ldi	r25, 0x0C	; 12
     428:	01 97       	sbiw	r24, 0x01	; 1
     42a:	f1 f7       	brne	.-4      	; 0x428 <__EEPROM_REGION_LENGTH__+0x28>
     42c:	00 c0       	rjmp	.+0      	; 0x42e <__EEPROM_REGION_LENGTH__+0x2e>
     42e:	00 00       	nop
			_delay_us(1661);
			PORTD &= ~(1<<PD1);
     430:	8b b1       	in	r24, 0x0b	; 11
     432:	8d 7f       	andi	r24, 0xFD	; 253
     434:	8b b9       	out	0x0b, r24	; 11
     436:	89 ef       	ldi	r24, 0xF9	; 249
     438:	9c e0       	ldi	r25, 0x0C	; 12
     43a:	01 97       	sbiw	r24, 0x01	; 1
     43c:	f1 f7       	brne	.-4      	; 0x43a <__EEPROM_REGION_LENGTH__+0x3a>
     43e:	00 c0       	rjmp	.+0      	; 0x440 <__EEPROM_REGION_LENGTH__+0x40>
     440:	00 00       	nop
		_delay_us(1661);}

		if (delay==NOTE_G2){
     442:	e0 32       	cpi	r30, 0x20	; 32
     444:	96 e0       	ldi	r25, 0x06	; 6
     446:	f9 07       	cpc	r31, r25
     448:	91 f4       	brne	.+36     	; 0x46e <__EEPROM_REGION_LENGTH__+0x6e>
			PORTD |= (1<<PD1);
     44a:	8b b1       	in	r24, 0x0b	; 11
     44c:	82 60       	ori	r24, 0x02	; 2
     44e:	8b b9       	out	0x0b, r24	; 11
     450:	8f e3       	ldi	r24, 0x3F	; 63
     452:	9c e0       	ldi	r25, 0x0C	; 12
     454:	01 97       	sbiw	r24, 0x01	; 1
     456:	f1 f7       	brne	.-4      	; 0x454 <__EEPROM_REGION_LENGTH__+0x54>
     458:	00 c0       	rjmp	.+0      	; 0x45a <__EEPROM_REGION_LENGTH__+0x5a>
     45a:	00 00       	nop
			_delay_us(1568);
			PORTD &= ~(1<<PD1);
     45c:	8b b1       	in	r24, 0x0b	; 11
     45e:	8d 7f       	andi	r24, 0xFD	; 253
     460:	8b b9       	out	0x0b, r24	; 11
     462:	8f e3       	ldi	r24, 0x3F	; 63
     464:	9c e0       	ldi	r25, 0x0C	; 12
     466:	01 97       	sbiw	r24, 0x01	; 1
     468:	f1 f7       	brne	.-4      	; 0x466 <__EEPROM_REGION_LENGTH__+0x66>
     46a:	00 c0       	rjmp	.+0      	; 0x46c <__EEPROM_REGION_LENGTH__+0x6c>
     46c:	00 00       	nop
		_delay_us(1568);}

		if (delay==NOTE_GS2){
     46e:	e8 3c       	cpi	r30, 0xC8	; 200
     470:	95 e0       	ldi	r25, 0x05	; 5
     472:	f9 07       	cpc	r31, r25
     474:	91 f4       	brne	.+36     	; 0x49a <__EEPROM_REGION_LENGTH__+0x9a>
			PORTD |= (1<<PD1);
     476:	8b b1       	in	r24, 0x0b	; 11
     478:	82 60       	ori	r24, 0x02	; 2
     47a:	8b b9       	out	0x0b, r24	; 11
     47c:	8f e8       	ldi	r24, 0x8F	; 143
     47e:	9b e0       	ldi	r25, 0x0B	; 11
     480:	01 97       	sbiw	r24, 0x01	; 1
     482:	f1 f7       	brne	.-4      	; 0x480 <__EEPROM_REGION_LENGTH__+0x80>
     484:	00 c0       	rjmp	.+0      	; 0x486 <__EEPROM_REGION_LENGTH__+0x86>
     486:	00 00       	nop
			_delay_us(1480);
			PORTD &= ~(1<<PD1);
     488:	8b b1       	in	r24, 0x0b	; 11
     48a:	8d 7f       	andi	r24, 0xFD	; 253
     48c:	8b b9       	out	0x0b, r24	; 11
     48e:	8f e8       	ldi	r24, 0x8F	; 143
     490:	9b e0       	ldi	r25, 0x0B	; 11
     492:	01 97       	sbiw	r24, 0x01	; 1
     494:	f1 f7       	brne	.-4      	; 0x492 <__EEPROM_REGION_LENGTH__+0x92>
     496:	00 c0       	rjmp	.+0      	; 0x498 <__EEPROM_REGION_LENGTH__+0x98>
     498:	00 00       	nop
		_delay_us(1480);}

		if (delay==NOTE_A2){
     49a:	e5 37       	cpi	r30, 0x75	; 117
     49c:	95 e0       	ldi	r25, 0x05	; 5
     49e:	f9 07       	cpc	r31, r25
     4a0:	91 f4       	brne	.+36     	; 0x4c6 <__EEPROM_REGION_LENGTH__+0xc6>
			PORTD |= (1<<PD1);
     4a2:	8b b1       	in	r24, 0x0b	; 11
     4a4:	82 60       	ori	r24, 0x02	; 2
     4a6:	8b b9       	out	0x0b, r24	; 11
     4a8:	89 ee       	ldi	r24, 0xE9	; 233
     4aa:	9a e0       	ldi	r25, 0x0A	; 10
     4ac:	01 97       	sbiw	r24, 0x01	; 1
     4ae:	f1 f7       	brne	.-4      	; 0x4ac <__EEPROM_REGION_LENGTH__+0xac>
     4b0:	00 c0       	rjmp	.+0      	; 0x4b2 <__EEPROM_REGION_LENGTH__+0xb2>
     4b2:	00 00       	nop
			_delay_us(1397);
			PORTD &= ~(1<<PD1);
     4b4:	8b b1       	in	r24, 0x0b	; 11
     4b6:	8d 7f       	andi	r24, 0xFD	; 253
     4b8:	8b b9       	out	0x0b, r24	; 11
     4ba:	89 ee       	ldi	r24, 0xE9	; 233
     4bc:	9a e0       	ldi	r25, 0x0A	; 10
     4be:	01 97       	sbiw	r24, 0x01	; 1
     4c0:	f1 f7       	brne	.-4      	; 0x4be <__EEPROM_REGION_LENGTH__+0xbe>
     4c2:	00 c0       	rjmp	.+0      	; 0x4c4 <__EEPROM_REGION_LENGTH__+0xc4>
     4c4:	00 00       	nop
		_delay_us(1397);}

		if (delay==NOTE_AS2){
     4c6:	e7 32       	cpi	r30, 0x27	; 39
     4c8:	95 e0       	ldi	r25, 0x05	; 5
     4ca:	f9 07       	cpc	r31, r25
     4cc:	91 f4       	brne	.+36     	; 0x4f2 <__EEPROM_REGION_LENGTH__+0xf2>
			PORTD |= (1<<PD1);
     4ce:	8b b1       	in	r24, 0x0b	; 11
     4d0:	82 60       	ori	r24, 0x02	; 2
     4d2:	8b b9       	out	0x0b, r24	; 11
     4d4:	8d e4       	ldi	r24, 0x4D	; 77
     4d6:	9a e0       	ldi	r25, 0x0A	; 10
     4d8:	01 97       	sbiw	r24, 0x01	; 1
     4da:	f1 f7       	brne	.-4      	; 0x4d8 <__EEPROM_REGION_LENGTH__+0xd8>
     4dc:	00 c0       	rjmp	.+0      	; 0x4de <__EEPROM_REGION_LENGTH__+0xde>
     4de:	00 00       	nop
			_delay_us(1319);
			PORTD &= ~(1<<PD1);
     4e0:	8b b1       	in	r24, 0x0b	; 11
     4e2:	8d 7f       	andi	r24, 0xFD	; 253
     4e4:	8b b9       	out	0x0b, r24	; 11
     4e6:	8d e4       	ldi	r24, 0x4D	; 77
     4e8:	9a e0       	ldi	r25, 0x0A	; 10
     4ea:	01 97       	sbiw	r24, 0x01	; 1
     4ec:	f1 f7       	brne	.-4      	; 0x4ea <__EEPROM_REGION_LENGTH__+0xea>
     4ee:	00 c0       	rjmp	.+0      	; 0x4f0 <__EEPROM_REGION_LENGTH__+0xf0>
     4f0:	00 00       	nop
		_delay_us(1319);}

		if (delay==NOTE_B2){
     4f2:	ed 3d       	cpi	r30, 0xDD	; 221
     4f4:	94 e0       	ldi	r25, 0x04	; 4
     4f6:	f9 07       	cpc	r31, r25
     4f8:	91 f4       	brne	.+36     	; 0x51e <__EEPROM_REGION_LENGTH__+0x11e>
			PORTD |= (1<<PD1);
     4fa:	8b b1       	in	r24, 0x0b	; 11
     4fc:	82 60       	ori	r24, 0x02	; 2
     4fe:	8b b9       	out	0x0b, r24	; 11
     500:	89 eb       	ldi	r24, 0xB9	; 185
     502:	99 e0       	ldi	r25, 0x09	; 9
     504:	01 97       	sbiw	r24, 0x01	; 1
     506:	f1 f7       	brne	.-4      	; 0x504 <__EEPROM_REGION_LENGTH__+0x104>
     508:	00 c0       	rjmp	.+0      	; 0x50a <__EEPROM_REGION_LENGTH__+0x10a>
     50a:	00 00       	nop
			_delay_us(1245);
			PORTD &= ~(1<<PD1);
     50c:	8b b1       	in	r24, 0x0b	; 11
     50e:	8d 7f       	andi	r24, 0xFD	; 253
     510:	8b b9       	out	0x0b, r24	; 11
     512:	89 eb       	ldi	r24, 0xB9	; 185
     514:	99 e0       	ldi	r25, 0x09	; 9
     516:	01 97       	sbiw	r24, 0x01	; 1
     518:	f1 f7       	brne	.-4      	; 0x516 <__EEPROM_REGION_LENGTH__+0x116>
     51a:	00 c0       	rjmp	.+0      	; 0x51c <__EEPROM_REGION_LENGTH__+0x11c>
     51c:	00 00       	nop
		_delay_us(1245);}

		if (delay==NOTE_C3){
     51e:	e7 39       	cpi	r30, 0x97	; 151
     520:	94 e0       	ldi	r25, 0x04	; 4
     522:	f9 07       	cpc	r31, r25
     524:	91 f4       	brne	.+36     	; 0x54a <__EEPROM_REGION_LENGTH__+0x14a>
			PORTD |= (1<<PD1);
     526:	8b b1       	in	r24, 0x0b	; 11
     528:	82 60       	ori	r24, 0x02	; 2
     52a:	8b b9       	out	0x0b, r24	; 11
     52c:	8d e2       	ldi	r24, 0x2D	; 45
     52e:	99 e0       	ldi	r25, 0x09	; 9
     530:	01 97       	sbiw	r24, 0x01	; 1
     532:	f1 f7       	brne	.-4      	; 0x530 <__EEPROM_REGION_LENGTH__+0x130>
     534:	00 c0       	rjmp	.+0      	; 0x536 <__EEPROM_REGION_LENGTH__+0x136>
     536:	00 00       	nop
			_delay_us(1175);
			PORTD &= ~(1<<PD1);
     538:	8b b1       	in	r24, 0x0b	; 11
     53a:	8d 7f       	andi	r24, 0xFD	; 253
     53c:	8b b9       	out	0x0b, r24	; 11
     53e:	8d e2       	ldi	r24, 0x2D	; 45
     540:	99 e0       	ldi	r25, 0x09	; 9
     542:	01 97       	sbiw	r24, 0x01	; 1
     544:	f1 f7       	brne	.-4      	; 0x542 <__EEPROM_REGION_LENGTH__+0x142>
     546:	00 c0       	rjmp	.+0      	; 0x548 <__EEPROM_REGION_LENGTH__+0x148>
     548:	00 00       	nop
		_delay_us(1175);}

		if (delay==NOTE_CS3){
     54a:	e5 35       	cpi	r30, 0x55	; 85
     54c:	94 e0       	ldi	r25, 0x04	; 4
     54e:	f9 07       	cpc	r31, r25
     550:	91 f4       	brne	.+36     	; 0x576 <__EEPROM_REGION_LENGTH__+0x176>
			PORTD |= (1<<PD1);
     552:	8b b1       	in	r24, 0x0b	; 11
     554:	82 60       	ori	r24, 0x02	; 2
     556:	8b b9       	out	0x0b, r24	; 11
     558:	89 ea       	ldi	r24, 0xA9	; 169
     55a:	98 e0       	ldi	r25, 0x08	; 8
     55c:	01 97       	sbiw	r24, 0x01	; 1
     55e:	f1 f7       	brne	.-4      	; 0x55c <__EEPROM_REGION_LENGTH__+0x15c>
     560:	00 c0       	rjmp	.+0      	; 0x562 <__EEPROM_REGION_LENGTH__+0x162>
     562:	00 00       	nop
			_delay_us(1109);
			PORTD &= ~(1<<PD1);
     564:	8b b1       	in	r24, 0x0b	; 11
     566:	8d 7f       	andi	r24, 0xFD	; 253
     568:	8b b9       	out	0x0b, r24	; 11
     56a:	89 ea       	ldi	r24, 0xA9	; 169
     56c:	98 e0       	ldi	r25, 0x08	; 8
     56e:	01 97       	sbiw	r24, 0x01	; 1
     570:	f1 f7       	brne	.-4      	; 0x56e <__EEPROM_REGION_LENGTH__+0x16e>
     572:	00 c0       	rjmp	.+0      	; 0x574 <__EEPROM_REGION_LENGTH__+0x174>
     574:	00 00       	nop
		_delay_us(1109);}

		if (delay==NOTE_D3){
     576:	e7 31       	cpi	r30, 0x17	; 23
     578:	94 e0       	ldi	r25, 0x04	; 4
     57a:	f9 07       	cpc	r31, r25
     57c:	91 f4       	brne	.+36     	; 0x5a2 <__EEPROM_REGION_LENGTH__+0x1a2>
			PORTD |= (1<<PD1);
     57e:	8b b1       	in	r24, 0x0b	; 11
     580:	82 60       	ori	r24, 0x02	; 2
     582:	8b b9       	out	0x0b, r24	; 11
     584:	8d e2       	ldi	r24, 0x2D	; 45
     586:	98 e0       	ldi	r25, 0x08	; 8
     588:	01 97       	sbiw	r24, 0x01	; 1
     58a:	f1 f7       	brne	.-4      	; 0x588 <__EEPROM_REGION_LENGTH__+0x188>
     58c:	00 c0       	rjmp	.+0      	; 0x58e <__EEPROM_REGION_LENGTH__+0x18e>
     58e:	00 00       	nop
			_delay_us(1047);
			PORTD &= ~(1<<PD1);
     590:	8b b1       	in	r24, 0x0b	; 11
     592:	8d 7f       	andi	r24, 0xFD	; 253
     594:	8b b9       	out	0x0b, r24	; 11
     596:	8d e2       	ldi	r24, 0x2D	; 45
     598:	98 e0       	ldi	r25, 0x08	; 8
     59a:	01 97       	sbiw	r24, 0x01	; 1
     59c:	f1 f7       	brne	.-4      	; 0x59a <__EEPROM_REGION_LENGTH__+0x19a>
     59e:	00 c0       	rjmp	.+0      	; 0x5a0 <__EEPROM_REGION_LENGTH__+0x1a0>
     5a0:	00 00       	nop
		_delay_us(1047);}

		if (delay==NOTE_DS3){
     5a2:	ec 3d       	cpi	r30, 0xDC	; 220
     5a4:	93 e0       	ldi	r25, 0x03	; 3
     5a6:	f9 07       	cpc	r31, r25
     5a8:	91 f4       	brne	.+36     	; 0x5ce <__EEPROM_REGION_LENGTH__+0x1ce>
			PORTD |= (1<<PD1);
     5aa:	8b b1       	in	r24, 0x0b	; 11
     5ac:	82 60       	ori	r24, 0x02	; 2
     5ae:	8b b9       	out	0x0b, r24	; 11
     5b0:	87 eb       	ldi	r24, 0xB7	; 183
     5b2:	97 e0       	ldi	r25, 0x07	; 7
     5b4:	01 97       	sbiw	r24, 0x01	; 1
     5b6:	f1 f7       	brne	.-4      	; 0x5b4 <__EEPROM_REGION_LENGTH__+0x1b4>
     5b8:	00 c0       	rjmp	.+0      	; 0x5ba <__EEPROM_REGION_LENGTH__+0x1ba>
     5ba:	00 00       	nop
			_delay_us(988);
			PORTD &= ~(1<<PD1);
     5bc:	8b b1       	in	r24, 0x0b	; 11
     5be:	8d 7f       	andi	r24, 0xFD	; 253
     5c0:	8b b9       	out	0x0b, r24	; 11
     5c2:	87 eb       	ldi	r24, 0xB7	; 183
     5c4:	97 e0       	ldi	r25, 0x07	; 7
     5c6:	01 97       	sbiw	r24, 0x01	; 1
     5c8:	f1 f7       	brne	.-4      	; 0x5c6 <__EEPROM_REGION_LENGTH__+0x1c6>
     5ca:	00 c0       	rjmp	.+0      	; 0x5cc <__EEPROM_REGION_LENGTH__+0x1cc>
     5cc:	00 00       	nop
		_delay_us(988);}

		if (delay==NOTE_E3){
     5ce:	e4 3a       	cpi	r30, 0xA4	; 164
     5d0:	93 e0       	ldi	r25, 0x03	; 3
     5d2:	f9 07       	cpc	r31, r25
     5d4:	91 f4       	brne	.+36     	; 0x5fa <__EEPROM_REGION_LENGTH__+0x1fa>
			PORTD |= (1<<PD1);
     5d6:	8b b1       	in	r24, 0x0b	; 11
     5d8:	82 60       	ori	r24, 0x02	; 2
     5da:	8b b9       	out	0x0b, r24	; 11
     5dc:	87 e4       	ldi	r24, 0x47	; 71
     5de:	97 e0       	ldi	r25, 0x07	; 7
     5e0:	01 97       	sbiw	r24, 0x01	; 1
     5e2:	f1 f7       	brne	.-4      	; 0x5e0 <__EEPROM_REGION_LENGTH__+0x1e0>
     5e4:	00 c0       	rjmp	.+0      	; 0x5e6 <__EEPROM_REGION_LENGTH__+0x1e6>
     5e6:	00 00       	nop
			_delay_us(932);
			PORTD &= ~(1<<PD1);
     5e8:	8b b1       	in	r24, 0x0b	; 11
     5ea:	8d 7f       	andi	r24, 0xFD	; 253
     5ec:	8b b9       	out	0x0b, r24	; 11
     5ee:	87 e4       	ldi	r24, 0x47	; 71
     5f0:	97 e0       	ldi	r25, 0x07	; 7
     5f2:	01 97       	sbiw	r24, 0x01	; 1
     5f4:	f1 f7       	brne	.-4      	; 0x5f2 <__EEPROM_REGION_LENGTH__+0x1f2>
     5f6:	00 c0       	rjmp	.+0      	; 0x5f8 <__EEPROM_REGION_LENGTH__+0x1f8>
     5f8:	00 00       	nop
		_delay_us(932);}

		if (delay==NOTE_F3){
     5fa:	e0 37       	cpi	r30, 0x70	; 112
     5fc:	93 e0       	ldi	r25, 0x03	; 3
     5fe:	f9 07       	cpc	r31, r25
     600:	91 f4       	brne	.+36     	; 0x626 <__EEPROM_REGION_LENGTH__+0x226>
			PORTD |= (1<<PD1);
     602:	8b b1       	in	r24, 0x0b	; 11
     604:	82 60       	ori	r24, 0x02	; 2
     606:	8b b9       	out	0x0b, r24	; 11
     608:	8f ed       	ldi	r24, 0xDF	; 223
     60a:	96 e0       	ldi	r25, 0x06	; 6
     60c:	01 97       	sbiw	r24, 0x01	; 1
     60e:	f1 f7       	brne	.-4      	; 0x60c <__EEPROM_REGION_LENGTH__+0x20c>
     610:	00 c0       	rjmp	.+0      	; 0x612 <__EEPROM_REGION_LENGTH__+0x212>
     612:	00 00       	nop
			_delay_us(880);
			PORTD &= ~(1<<PD1);
     614:	8b b1       	in	r24, 0x0b	; 11
     616:	8d 7f       	andi	r24, 0xFD	; 253
     618:	8b b9       	out	0x0b, r24	; 11
     61a:	8f ed       	ldi	r24, 0xDF	; 223
     61c:	96 e0       	ldi	r25, 0x06	; 6
     61e:	01 97       	sbiw	r24, 0x01	; 1
     620:	f1 f7       	brne	.-4      	; 0x61e <__EEPROM_REGION_LENGTH__+0x21e>
     622:	00 c0       	rjmp	.+0      	; 0x624 <__EEPROM_REGION_LENGTH__+0x224>
     624:	00 00       	nop
		_delay_us(880);}

		if (delay==NOTE_FS3){
     626:	ef 33       	cpi	r30, 0x3F	; 63
     628:	93 e0       	ldi	r25, 0x03	; 3
     62a:	f9 07       	cpc	r31, r25
     62c:	91 f4       	brne	.+36     	; 0x652 <__EEPROM_REGION_LENGTH__+0x252>
			PORTD |= (1<<PD1);
     62e:	8b b1       	in	r24, 0x0b	; 11
     630:	82 60       	ori	r24, 0x02	; 2
     632:	8b b9       	out	0x0b, r24	; 11
     634:	8d e7       	ldi	r24, 0x7D	; 125
     636:	96 e0       	ldi	r25, 0x06	; 6
     638:	01 97       	sbiw	r24, 0x01	; 1
     63a:	f1 f7       	brne	.-4      	; 0x638 <__EEPROM_REGION_LENGTH__+0x238>
     63c:	00 c0       	rjmp	.+0      	; 0x63e <__EEPROM_REGION_LENGTH__+0x23e>
     63e:	00 00       	nop
			_delay_us(831);
			PORTD &= ~(1<<PD1);
     640:	8b b1       	in	r24, 0x0b	; 11
     642:	8d 7f       	andi	r24, 0xFD	; 253
     644:	8b b9       	out	0x0b, r24	; 11
     646:	8d e7       	ldi	r24, 0x7D	; 125
     648:	96 e0       	ldi	r25, 0x06	; 6
     64a:	01 97       	sbiw	r24, 0x01	; 1
     64c:	f1 f7       	brne	.-4      	; 0x64a <__EEPROM_REGION_LENGTH__+0x24a>
     64e:	00 c0       	rjmp	.+0      	; 0x650 <__EEPROM_REGION_LENGTH__+0x250>
     650:	00 00       	nop
		_delay_us(831);}

		if (delay==NOTE_G3){
     652:	e0 31       	cpi	r30, 0x10	; 16
     654:	93 e0       	ldi	r25, 0x03	; 3
     656:	f9 07       	cpc	r31, r25
     658:	91 f4       	brne	.+36     	; 0x67e <__EEPROM_REGION_LENGTH__+0x27e>
			PORTD |= (1<<PD1);
     65a:	8b b1       	in	r24, 0x0b	; 11
     65c:	82 60       	ori	r24, 0x02	; 2
     65e:	8b b9       	out	0x0b, r24	; 11
     660:	8f e1       	ldi	r24, 0x1F	; 31
     662:	96 e0       	ldi	r25, 0x06	; 6
     664:	01 97       	sbiw	r24, 0x01	; 1
     666:	f1 f7       	brne	.-4      	; 0x664 <__EEPROM_REGION_LENGTH__+0x264>
     668:	00 c0       	rjmp	.+0      	; 0x66a <__EEPROM_REGION_LENGTH__+0x26a>
     66a:	00 00       	nop
			_delay_us(784);
			PORTD &= ~(1<<PD1);
     66c:	8b b1       	in	r24, 0x0b	; 11
     66e:	8d 7f       	andi	r24, 0xFD	; 253
     670:	8b b9       	out	0x0b, r24	; 11
     672:	8f e1       	ldi	r24, 0x1F	; 31
     674:	96 e0       	ldi	r25, 0x06	; 6
     676:	01 97       	sbiw	r24, 0x01	; 1
     678:	f1 f7       	brne	.-4      	; 0x676 <__EEPROM_REGION_LENGTH__+0x276>
     67a:	00 c0       	rjmp	.+0      	; 0x67c <__EEPROM_REGION_LENGTH__+0x27c>
     67c:	00 00       	nop
		_delay_us(784);}

		if (delay==NOTE_GS3){
     67e:	e4 3e       	cpi	r30, 0xE4	; 228
     680:	92 e0       	ldi	r25, 0x02	; 2
     682:	f9 07       	cpc	r31, r25
     684:	91 f4       	brne	.+36     	; 0x6aa <__EEPROM_REGION_LENGTH__+0x2aa>
			PORTD |= (1<<PD1);
     686:	8b b1       	in	r24, 0x0b	; 11
     688:	82 60       	ori	r24, 0x02	; 2
     68a:	8b b9       	out	0x0b, r24	; 11
     68c:	87 ec       	ldi	r24, 0xC7	; 199
     68e:	95 e0       	ldi	r25, 0x05	; 5
     690:	01 97       	sbiw	r24, 0x01	; 1
     692:	f1 f7       	brne	.-4      	; 0x690 <__EEPROM_REGION_LENGTH__+0x290>
     694:	00 c0       	rjmp	.+0      	; 0x696 <__EEPROM_REGION_LENGTH__+0x296>
     696:	00 00       	nop
			_delay_us(740);
			PORTD &= ~(1<<PD1);
     698:	8b b1       	in	r24, 0x0b	; 11
     69a:	8d 7f       	andi	r24, 0xFD	; 253
     69c:	8b b9       	out	0x0b, r24	; 11
     69e:	87 ec       	ldi	r24, 0xC7	; 199
     6a0:	95 e0       	ldi	r25, 0x05	; 5
     6a2:	01 97       	sbiw	r24, 0x01	; 1
     6a4:	f1 f7       	brne	.-4      	; 0x6a2 <__EEPROM_REGION_LENGTH__+0x2a2>
     6a6:	00 c0       	rjmp	.+0      	; 0x6a8 <__EEPROM_REGION_LENGTH__+0x2a8>
     6a8:	00 00       	nop
		_delay_us(740);}

		if (delay==NOTE_A3){
     6aa:	ea 3b       	cpi	r30, 0xBA	; 186
     6ac:	92 e0       	ldi	r25, 0x02	; 2
     6ae:	f9 07       	cpc	r31, r25
     6b0:	91 f4       	brne	.+36     	; 0x6d6 <__EEPROM_REGION_LENGTH__+0x2d6>
			PORTD |= (1<<PD1);
     6b2:	8b b1       	in	r24, 0x0b	; 11
     6b4:	82 60       	ori	r24, 0x02	; 2
     6b6:	8b b9       	out	0x0b, r24	; 11
     6b8:	83 e7       	ldi	r24, 0x73	; 115
     6ba:	95 e0       	ldi	r25, 0x05	; 5
     6bc:	01 97       	sbiw	r24, 0x01	; 1
     6be:	f1 f7       	brne	.-4      	; 0x6bc <__EEPROM_REGION_LENGTH__+0x2bc>
     6c0:	00 c0       	rjmp	.+0      	; 0x6c2 <__EEPROM_REGION_LENGTH__+0x2c2>
     6c2:	00 00       	nop
			_delay_us(698);
			PORTD &= ~(1<<PD1);
     6c4:	8b b1       	in	r24, 0x0b	; 11
     6c6:	8d 7f       	andi	r24, 0xFD	; 253
     6c8:	8b b9       	out	0x0b, r24	; 11
     6ca:	83 e7       	ldi	r24, 0x73	; 115
     6cc:	95 e0       	ldi	r25, 0x05	; 5
     6ce:	01 97       	sbiw	r24, 0x01	; 1
     6d0:	f1 f7       	brne	.-4      	; 0x6ce <__EEPROM_REGION_LENGTH__+0x2ce>
     6d2:	00 c0       	rjmp	.+0      	; 0x6d4 <__EEPROM_REGION_LENGTH__+0x2d4>
     6d4:	00 00       	nop
		_delay_us(698);}

		if (delay==NOTE_AS3){
     6d6:	e3 39       	cpi	r30, 0x93	; 147
     6d8:	92 e0       	ldi	r25, 0x02	; 2
     6da:	f9 07       	cpc	r31, r25
     6dc:	91 f4       	brne	.+36     	; 0x702 <__EEPROM_REGION_LENGTH__+0x302>
			PORTD |= (1<<PD1);
     6de:	8b b1       	in	r24, 0x0b	; 11
     6e0:	82 60       	ori	r24, 0x02	; 2
     6e2:	8b b9       	out	0x0b, r24	; 11
     6e4:	85 e2       	ldi	r24, 0x25	; 37
     6e6:	95 e0       	ldi	r25, 0x05	; 5
     6e8:	01 97       	sbiw	r24, 0x01	; 1
     6ea:	f1 f7       	brne	.-4      	; 0x6e8 <__EEPROM_REGION_LENGTH__+0x2e8>
     6ec:	00 c0       	rjmp	.+0      	; 0x6ee <__EEPROM_REGION_LENGTH__+0x2ee>
     6ee:	00 00       	nop
			_delay_us(659);
			PORTD &= ~(1<<PD1);
     6f0:	8b b1       	in	r24, 0x0b	; 11
     6f2:	8d 7f       	andi	r24, 0xFD	; 253
     6f4:	8b b9       	out	0x0b, r24	; 11
     6f6:	85 e2       	ldi	r24, 0x25	; 37
     6f8:	95 e0       	ldi	r25, 0x05	; 5
     6fa:	01 97       	sbiw	r24, 0x01	; 1
     6fc:	f1 f7       	brne	.-4      	; 0x6fa <__EEPROM_REGION_LENGTH__+0x2fa>
     6fe:	00 c0       	rjmp	.+0      	; 0x700 <__EEPROM_REGION_LENGTH__+0x300>
     700:	00 00       	nop
		_delay_us(659);}

		if (delay==NOTE_B3){
     702:	ee 36       	cpi	r30, 0x6E	; 110
     704:	92 e0       	ldi	r25, 0x02	; 2
     706:	f9 07       	cpc	r31, r25
     708:	91 f4       	brne	.+36     	; 0x72e <__EEPROM_REGION_LENGTH__+0x32e>
			PORTD |= (1<<PD1);
     70a:	8b b1       	in	r24, 0x0b	; 11
     70c:	82 60       	ori	r24, 0x02	; 2
     70e:	8b b9       	out	0x0b, r24	; 11
     710:	8b ed       	ldi	r24, 0xDB	; 219
     712:	94 e0       	ldi	r25, 0x04	; 4
     714:	01 97       	sbiw	r24, 0x01	; 1
     716:	f1 f7       	brne	.-4      	; 0x714 <__EEPROM_REGION_LENGTH__+0x314>
     718:	00 c0       	rjmp	.+0      	; 0x71a <__EEPROM_REGION_LENGTH__+0x31a>
     71a:	00 00       	nop
			_delay_us(622);
			PORTD &= ~(1<<PD1);
     71c:	8b b1       	in	r24, 0x0b	; 11
     71e:	8d 7f       	andi	r24, 0xFD	; 253
     720:	8b b9       	out	0x0b, r24	; 11
     722:	8b ed       	ldi	r24, 0xDB	; 219
     724:	94 e0       	ldi	r25, 0x04	; 4
     726:	01 97       	sbiw	r24, 0x01	; 1
     728:	f1 f7       	brne	.-4      	; 0x726 <__EEPROM_REGION_LENGTH__+0x326>
     72a:	00 c0       	rjmp	.+0      	; 0x72c <__EEPROM_REGION_LENGTH__+0x32c>
     72c:	00 00       	nop
		_delay_us(622);}

		if (delay==NOTE_C4){
     72e:	eb 34       	cpi	r30, 0x4B	; 75
     730:	92 e0       	ldi	r25, 0x02	; 2
     732:	f9 07       	cpc	r31, r25
     734:	91 f4       	brne	.+36     	; 0x75a <__EEPROM_REGION_LENGTH__+0x35a>
			PORTD |= (1<<PD1);
     736:	8b b1       	in	r24, 0x0b	; 11
     738:	82 60       	ori	r24, 0x02	; 2
     73a:	8b b9       	out	0x0b, r24	; 11
     73c:	85 e9       	ldi	r24, 0x95	; 149
     73e:	94 e0       	ldi	r25, 0x04	; 4
     740:	01 97       	sbiw	r24, 0x01	; 1
     742:	f1 f7       	brne	.-4      	; 0x740 <__EEPROM_REGION_LENGTH__+0x340>
     744:	00 c0       	rjmp	.+0      	; 0x746 <__EEPROM_REGION_LENGTH__+0x346>
     746:	00 00       	nop
			_delay_us(587);
			PORTD &= ~(1<<PD1);
     748:	8b b1       	in	r24, 0x0b	; 11
     74a:	8d 7f       	andi	r24, 0xFD	; 253
     74c:	8b b9       	out	0x0b, r24	; 11
     74e:	85 e9       	ldi	r24, 0x95	; 149
     750:	94 e0       	ldi	r25, 0x04	; 4
     752:	01 97       	sbiw	r24, 0x01	; 1
     754:	f1 f7       	brne	.-4      	; 0x752 <__EEPROM_REGION_LENGTH__+0x352>
     756:	00 c0       	rjmp	.+0      	; 0x758 <__EEPROM_REGION_LENGTH__+0x358>
     758:	00 00       	nop
		_delay_us(587);}

		if (delay==NOTE_CS4){
     75a:	ea 32       	cpi	r30, 0x2A	; 42
     75c:	92 e0       	ldi	r25, 0x02	; 2
     75e:	f9 07       	cpc	r31, r25
     760:	91 f4       	brne	.+36     	; 0x786 <__EEPROM_REGION_LENGTH__+0x386>
			PORTD |= (1<<PD1);
     762:	8b b1       	in	r24, 0x0b	; 11
     764:	82 60       	ori	r24, 0x02	; 2
     766:	8b b9       	out	0x0b, r24	; 11
     768:	83 e5       	ldi	r24, 0x53	; 83
     76a:	94 e0       	ldi	r25, 0x04	; 4
     76c:	01 97       	sbiw	r24, 0x01	; 1
     76e:	f1 f7       	brne	.-4      	; 0x76c <__EEPROM_REGION_LENGTH__+0x36c>
     770:	00 c0       	rjmp	.+0      	; 0x772 <__EEPROM_REGION_LENGTH__+0x372>
     772:	00 00       	nop
			_delay_us(554);
			PORTD &= ~(1<<PD1);
     774:	8b b1       	in	r24, 0x0b	; 11
     776:	8d 7f       	andi	r24, 0xFD	; 253
     778:	8b b9       	out	0x0b, r24	; 11
     77a:	83 e5       	ldi	r24, 0x53	; 83
     77c:	94 e0       	ldi	r25, 0x04	; 4
     77e:	01 97       	sbiw	r24, 0x01	; 1
     780:	f1 f7       	brne	.-4      	; 0x77e <__EEPROM_REGION_LENGTH__+0x37e>
     782:	00 c0       	rjmp	.+0      	; 0x784 <__EEPROM_REGION_LENGTH__+0x384>
     784:	00 00       	nop
		_delay_us(554);}

		if (delay==NOTE_D4){
     786:	eb 30       	cpi	r30, 0x0B	; 11
     788:	92 e0       	ldi	r25, 0x02	; 2
     78a:	f9 07       	cpc	r31, r25
     78c:	91 f4       	brne	.+36     	; 0x7b2 <__EEPROM_REGION_LENGTH__+0x3b2>
			PORTD |= (1<<PD1);
     78e:	8b b1       	in	r24, 0x0b	; 11
     790:	82 60       	ori	r24, 0x02	; 2
     792:	8b b9       	out	0x0b, r24	; 11
     794:	85 e1       	ldi	r24, 0x15	; 21
     796:	94 e0       	ldi	r25, 0x04	; 4
     798:	01 97       	sbiw	r24, 0x01	; 1
     79a:	f1 f7       	brne	.-4      	; 0x798 <__EEPROM_REGION_LENGTH__+0x398>
     79c:	00 c0       	rjmp	.+0      	; 0x79e <__EEPROM_REGION_LENGTH__+0x39e>
     79e:	00 00       	nop
			_delay_us(523);
			PORTD &= ~(1<<PD1);
     7a0:	8b b1       	in	r24, 0x0b	; 11
     7a2:	8d 7f       	andi	r24, 0xFD	; 253
     7a4:	8b b9       	out	0x0b, r24	; 11
     7a6:	85 e1       	ldi	r24, 0x15	; 21
     7a8:	94 e0       	ldi	r25, 0x04	; 4
     7aa:	01 97       	sbiw	r24, 0x01	; 1
     7ac:	f1 f7       	brne	.-4      	; 0x7aa <__EEPROM_REGION_LENGTH__+0x3aa>
     7ae:	00 c0       	rjmp	.+0      	; 0x7b0 <__EEPROM_REGION_LENGTH__+0x3b0>
     7b0:	00 00       	nop
		_delay_us(523);}

		if (delay==NOTE_DS4){
     7b2:	ee 3e       	cpi	r30, 0xEE	; 238
     7b4:	91 e0       	ldi	r25, 0x01	; 1
     7b6:	f9 07       	cpc	r31, r25
     7b8:	91 f4       	brne	.+36     	; 0x7de <__EEPROM_REGION_LENGTH__+0x3de>
			PORTD |= (1<<PD1);
     7ba:	8b b1       	in	r24, 0x0b	; 11
     7bc:	82 60       	ori	r24, 0x02	; 2
     7be:	8b b9       	out	0x0b, r24	; 11
     7c0:	8b ed       	ldi	r24, 0xDB	; 219
     7c2:	93 e0       	ldi	r25, 0x03	; 3
     7c4:	01 97       	sbiw	r24, 0x01	; 1
     7c6:	f1 f7       	brne	.-4      	; 0x7c4 <__EEPROM_REGION_LENGTH__+0x3c4>
     7c8:	00 c0       	rjmp	.+0      	; 0x7ca <__EEPROM_REGION_LENGTH__+0x3ca>
     7ca:	00 00       	nop
			_delay_us(494);
			PORTD &= ~(1<<PD1);
     7cc:	8b b1       	in	r24, 0x0b	; 11
     7ce:	8d 7f       	andi	r24, 0xFD	; 253
     7d0:	8b b9       	out	0x0b, r24	; 11
     7d2:	8b ed       	ldi	r24, 0xDB	; 219
     7d4:	93 e0       	ldi	r25, 0x03	; 3
     7d6:	01 97       	sbiw	r24, 0x01	; 1
     7d8:	f1 f7       	brne	.-4      	; 0x7d6 <__EEPROM_REGION_LENGTH__+0x3d6>
     7da:	00 c0       	rjmp	.+0      	; 0x7dc <__EEPROM_REGION_LENGTH__+0x3dc>
     7dc:	00 00       	nop
		_delay_us(494);}

		if (delay==NOTE_E4){
     7de:	e2 3d       	cpi	r30, 0xD2	; 210
     7e0:	91 e0       	ldi	r25, 0x01	; 1
     7e2:	f9 07       	cpc	r31, r25
     7e4:	91 f4       	brne	.+36     	; 0x80a <__DATA_REGION_LENGTH__+0xa>
			PORTD |= (1<<PD1);
     7e6:	8b b1       	in	r24, 0x0b	; 11
     7e8:	82 60       	ori	r24, 0x02	; 2
     7ea:	8b b9       	out	0x0b, r24	; 11
     7ec:	83 ea       	ldi	r24, 0xA3	; 163
     7ee:	93 e0       	ldi	r25, 0x03	; 3
     7f0:	01 97       	sbiw	r24, 0x01	; 1
     7f2:	f1 f7       	brne	.-4      	; 0x7f0 <__EEPROM_REGION_LENGTH__+0x3f0>
     7f4:	00 c0       	rjmp	.+0      	; 0x7f6 <__EEPROM_REGION_LENGTH__+0x3f6>
     7f6:	00 00       	nop
			_delay_us(466);
			PORTD &= ~(1<<PD1);
     7f8:	8b b1       	in	r24, 0x0b	; 11
     7fa:	8d 7f       	andi	r24, 0xFD	; 253
     7fc:	8b b9       	out	0x0b, r24	; 11
     7fe:	83 ea       	ldi	r24, 0xA3	; 163
     800:	93 e0       	ldi	r25, 0x03	; 3
     802:	01 97       	sbiw	r24, 0x01	; 1
     804:	f1 f7       	brne	.-4      	; 0x802 <__DATA_REGION_LENGTH__+0x2>
     806:	00 c0       	rjmp	.+0      	; 0x808 <__DATA_REGION_LENGTH__+0x8>
     808:	00 00       	nop
		_delay_us(466);}

		if (delay==NOTE_F4){
     80a:	e8 3b       	cpi	r30, 0xB8	; 184
     80c:	91 e0       	ldi	r25, 0x01	; 1
     80e:	f9 07       	cpc	r31, r25
     810:	91 f4       	brne	.+36     	; 0x836 <__DATA_REGION_LENGTH__+0x36>
			PORTD |= (1<<PD1);
     812:	8b b1       	in	r24, 0x0b	; 11
     814:	82 60       	ori	r24, 0x02	; 2
     816:	8b b9       	out	0x0b, r24	; 11
     818:	8f e6       	ldi	r24, 0x6F	; 111
     81a:	93 e0       	ldi	r25, 0x03	; 3
     81c:	01 97       	sbiw	r24, 0x01	; 1
     81e:	f1 f7       	brne	.-4      	; 0x81c <__DATA_REGION_LENGTH__+0x1c>
     820:	00 c0       	rjmp	.+0      	; 0x822 <__DATA_REGION_LENGTH__+0x22>
     822:	00 00       	nop
			_delay_us(440);
			PORTD &= ~(1<<PD1);
     824:	8b b1       	in	r24, 0x0b	; 11
     826:	8d 7f       	andi	r24, 0xFD	; 253
     828:	8b b9       	out	0x0b, r24	; 11
     82a:	8f e6       	ldi	r24, 0x6F	; 111
     82c:	93 e0       	ldi	r25, 0x03	; 3
     82e:	01 97       	sbiw	r24, 0x01	; 1
     830:	f1 f7       	brne	.-4      	; 0x82e <__DATA_REGION_LENGTH__+0x2e>
     832:	00 c0       	rjmp	.+0      	; 0x834 <__DATA_REGION_LENGTH__+0x34>
     834:	00 00       	nop
		_delay_us(440);}

		if (delay==NOTE_FS4){
     836:	ef 39       	cpi	r30, 0x9F	; 159
     838:	91 e0       	ldi	r25, 0x01	; 1
     83a:	f9 07       	cpc	r31, r25
     83c:	91 f4       	brne	.+36     	; 0x862 <__DATA_REGION_LENGTH__+0x62>
			PORTD |= (1<<PD1);
     83e:	8b b1       	in	r24, 0x0b	; 11
     840:	82 60       	ori	r24, 0x02	; 2
     842:	8b b9       	out	0x0b, r24	; 11
     844:	8d e3       	ldi	r24, 0x3D	; 61
     846:	93 e0       	ldi	r25, 0x03	; 3
     848:	01 97       	sbiw	r24, 0x01	; 1
     84a:	f1 f7       	brne	.-4      	; 0x848 <__DATA_REGION_LENGTH__+0x48>
     84c:	00 c0       	rjmp	.+0      	; 0x84e <__DATA_REGION_LENGTH__+0x4e>
     84e:	00 00       	nop
			_delay_us(415);
			PORTD &= ~(1<<PD1);
     850:	8b b1       	in	r24, 0x0b	; 11
     852:	8d 7f       	andi	r24, 0xFD	; 253
     854:	8b b9       	out	0x0b, r24	; 11
     856:	8d e3       	ldi	r24, 0x3D	; 61
     858:	93 e0       	ldi	r25, 0x03	; 3
     85a:	01 97       	sbiw	r24, 0x01	; 1
     85c:	f1 f7       	brne	.-4      	; 0x85a <__DATA_REGION_LENGTH__+0x5a>
     85e:	00 c0       	rjmp	.+0      	; 0x860 <__DATA_REGION_LENGTH__+0x60>
     860:	00 00       	nop
		_delay_us(415);}

		if (delay==NOTE_G4){
     862:	e8 38       	cpi	r30, 0x88	; 136
     864:	91 e0       	ldi	r25, 0x01	; 1
     866:	f9 07       	cpc	r31, r25
     868:	91 f4       	brne	.+36     	; 0x88e <__DATA_REGION_LENGTH__+0x8e>
			PORTD |= (1<<PD1);
     86a:	8b b1       	in	r24, 0x0b	; 11
     86c:	82 60       	ori	r24, 0x02	; 2
     86e:	8b b9       	out	0x0b, r24	; 11
     870:	8f e0       	ldi	r24, 0x0F	; 15
     872:	93 e0       	ldi	r25, 0x03	; 3
     874:	01 97       	sbiw	r24, 0x01	; 1
     876:	f1 f7       	brne	.-4      	; 0x874 <__DATA_REGION_LENGTH__+0x74>
     878:	00 c0       	rjmp	.+0      	; 0x87a <__DATA_REGION_LENGTH__+0x7a>
     87a:	00 00       	nop
			_delay_us(392);
			PORTD &= ~(1<<PD1);
     87c:	8b b1       	in	r24, 0x0b	; 11
     87e:	8d 7f       	andi	r24, 0xFD	; 253
     880:	8b b9       	out	0x0b, r24	; 11
     882:	8f e0       	ldi	r24, 0x0F	; 15
     884:	93 e0       	ldi	r25, 0x03	; 3
     886:	01 97       	sbiw	r24, 0x01	; 1
     888:	f1 f7       	brne	.-4      	; 0x886 <__DATA_REGION_LENGTH__+0x86>
     88a:	00 c0       	rjmp	.+0      	; 0x88c <__DATA_REGION_LENGTH__+0x8c>
     88c:	00 00       	nop
		_delay_us(392);}

		if (delay==NOTE_GS4){
     88e:	e2 37       	cpi	r30, 0x72	; 114
     890:	91 e0       	ldi	r25, 0x01	; 1
     892:	f9 07       	cpc	r31, r25
     894:	91 f4       	brne	.+36     	; 0x8ba <__DATA_REGION_LENGTH__+0xba>
			PORTD |= (1<<PD1);
     896:	8b b1       	in	r24, 0x0b	; 11
     898:	82 60       	ori	r24, 0x02	; 2
     89a:	8b b9       	out	0x0b, r24	; 11
     89c:	83 ee       	ldi	r24, 0xE3	; 227
     89e:	92 e0       	ldi	r25, 0x02	; 2
     8a0:	01 97       	sbiw	r24, 0x01	; 1
     8a2:	f1 f7       	brne	.-4      	; 0x8a0 <__DATA_REGION_LENGTH__+0xa0>
     8a4:	00 c0       	rjmp	.+0      	; 0x8a6 <__DATA_REGION_LENGTH__+0xa6>
     8a6:	00 00       	nop
			_delay_us(370);
			PORTD &= ~(1<<PD1);
     8a8:	8b b1       	in	r24, 0x0b	; 11
     8aa:	8d 7f       	andi	r24, 0xFD	; 253
     8ac:	8b b9       	out	0x0b, r24	; 11
     8ae:	83 ee       	ldi	r24, 0xE3	; 227
     8b0:	92 e0       	ldi	r25, 0x02	; 2
     8b2:	01 97       	sbiw	r24, 0x01	; 1
     8b4:	f1 f7       	brne	.-4      	; 0x8b2 <__DATA_REGION_LENGTH__+0xb2>
     8b6:	00 c0       	rjmp	.+0      	; 0x8b8 <__DATA_REGION_LENGTH__+0xb8>
     8b8:	00 00       	nop
		_delay_us(370);}

		if (delay==NOTE_A4){
     8ba:	ed 35       	cpi	r30, 0x5D	; 93
     8bc:	91 e0       	ldi	r25, 0x01	; 1
     8be:	f9 07       	cpc	r31, r25
     8c0:	91 f4       	brne	.+36     	; 0x8e6 <__DATA_REGION_LENGTH__+0xe6>
			PORTD |= (1<<PD1);
     8c2:	8b b1       	in	r24, 0x0b	; 11
     8c4:	82 60       	ori	r24, 0x02	; 2
     8c6:	8b b9       	out	0x0b, r24	; 11
     8c8:	89 eb       	ldi	r24, 0xB9	; 185
     8ca:	92 e0       	ldi	r25, 0x02	; 2
     8cc:	01 97       	sbiw	r24, 0x01	; 1
     8ce:	f1 f7       	brne	.-4      	; 0x8cc <__DATA_REGION_LENGTH__+0xcc>
     8d0:	00 c0       	rjmp	.+0      	; 0x8d2 <__DATA_REGION_LENGTH__+0xd2>
     8d2:	00 00       	nop
			_delay_us(349);
			PORTD &= ~(1<<PD1);
     8d4:	8b b1       	in	r24, 0x0b	; 11
     8d6:	8d 7f       	andi	r24, 0xFD	; 253
     8d8:	8b b9       	out	0x0b, r24	; 11
     8da:	89 eb       	ldi	r24, 0xB9	; 185
     8dc:	92 e0       	ldi	r25, 0x02	; 2
     8de:	01 97       	sbiw	r24, 0x01	; 1
     8e0:	f1 f7       	brne	.-4      	; 0x8de <__DATA_REGION_LENGTH__+0xde>
     8e2:	00 c0       	rjmp	.+0      	; 0x8e4 <__DATA_REGION_LENGTH__+0xe4>
     8e4:	00 00       	nop
		_delay_us(349);}

		if (delay==NOTE_AS4){
     8e6:	ea 34       	cpi	r30, 0x4A	; 74
     8e8:	91 e0       	ldi	r25, 0x01	; 1
     8ea:	f9 07       	cpc	r31, r25
     8ec:	91 f4       	brne	.+36     	; 0x912 <__stack+0x13>
			PORTD |= (1<<PD1);
     8ee:	8b b1       	in	r24, 0x0b	; 11
     8f0:	82 60       	ori	r24, 0x02	; 2
     8f2:	8b b9       	out	0x0b, r24	; 11
     8f4:	83 e9       	ldi	r24, 0x93	; 147
     8f6:	92 e0       	ldi	r25, 0x02	; 2
     8f8:	01 97       	sbiw	r24, 0x01	; 1
     8fa:	f1 f7       	brne	.-4      	; 0x8f8 <__DATA_REGION_LENGTH__+0xf8>
     8fc:	00 c0       	rjmp	.+0      	; 0x8fe <__DATA_REGION_LENGTH__+0xfe>
     8fe:	00 00       	nop
			_delay_us(330);
			PORTD &= ~(1<<PD1);
     900:	8b b1       	in	r24, 0x0b	; 11
     902:	8d 7f       	andi	r24, 0xFD	; 253
     904:	8b b9       	out	0x0b, r24	; 11
     906:	83 e9       	ldi	r24, 0x93	; 147
     908:	92 e0       	ldi	r25, 0x02	; 2
     90a:	01 97       	sbiw	r24, 0x01	; 1
     90c:	f1 f7       	brne	.-4      	; 0x90a <__stack+0xb>
     90e:	00 c0       	rjmp	.+0      	; 0x910 <__stack+0x11>
     910:	00 00       	nop
		_delay_us(330);}

		if (delay==NOTE_B4){
     912:	e7 33       	cpi	r30, 0x37	; 55
     914:	91 e0       	ldi	r25, 0x01	; 1
     916:	f9 07       	cpc	r31, r25
     918:	91 f4       	brne	.+36     	; 0x93e <__stack+0x3f>
			PORTD |= (1<<PD1);
     91a:	8b b1       	in	r24, 0x0b	; 11
     91c:	82 60       	ori	r24, 0x02	; 2
     91e:	8b b9       	out	0x0b, r24	; 11
     920:	8d e6       	ldi	r24, 0x6D	; 109
     922:	92 e0       	ldi	r25, 0x02	; 2
     924:	01 97       	sbiw	r24, 0x01	; 1
     926:	f1 f7       	brne	.-4      	; 0x924 <__stack+0x25>
     928:	00 c0       	rjmp	.+0      	; 0x92a <__stack+0x2b>
     92a:	00 00       	nop
			_delay_us(311);
			PORTD &= ~(1<<PD1);
     92c:	8b b1       	in	r24, 0x0b	; 11
     92e:	8d 7f       	andi	r24, 0xFD	; 253
     930:	8b b9       	out	0x0b, r24	; 11
     932:	8d e6       	ldi	r24, 0x6D	; 109
     934:	92 e0       	ldi	r25, 0x02	; 2
     936:	01 97       	sbiw	r24, 0x01	; 1
     938:	f1 f7       	brne	.-4      	; 0x936 <__stack+0x37>
     93a:	00 c0       	rjmp	.+0      	; 0x93c <__stack+0x3d>
     93c:	00 00       	nop
		_delay_us(311);}

		if (delay==NOTE_C5){
     93e:	e6 32       	cpi	r30, 0x26	; 38
     940:	91 e0       	ldi	r25, 0x01	; 1
     942:	f9 07       	cpc	r31, r25
     944:	91 f4       	brne	.+36     	; 0x96a <__stack+0x6b>
			PORTD |= (1<<PD1);
     946:	8b b1       	in	r24, 0x0b	; 11
     948:	82 60       	ori	r24, 0x02	; 2
     94a:	8b b9       	out	0x0b, r24	; 11
     94c:	8b e4       	ldi	r24, 0x4B	; 75
     94e:	92 e0       	ldi	r25, 0x02	; 2
     950:	01 97       	sbiw	r24, 0x01	; 1
     952:	f1 f7       	brne	.-4      	; 0x950 <__stack+0x51>
     954:	00 c0       	rjmp	.+0      	; 0x956 <__stack+0x57>
     956:	00 00       	nop
			_delay_us(294);
			PORTD &= ~(1<<PD1);
     958:	8b b1       	in	r24, 0x0b	; 11
     95a:	8d 7f       	andi	r24, 0xFD	; 253
     95c:	8b b9       	out	0x0b, r24	; 11
     95e:	8b e4       	ldi	r24, 0x4B	; 75
     960:	92 e0       	ldi	r25, 0x02	; 2
     962:	01 97       	sbiw	r24, 0x01	; 1
     964:	f1 f7       	brne	.-4      	; 0x962 <__stack+0x63>
     966:	00 c0       	rjmp	.+0      	; 0x968 <__stack+0x69>
     968:	00 00       	nop
		_delay_us(294);}

		if (delay==NOTE_CS5){
     96a:	e5 31       	cpi	r30, 0x15	; 21
     96c:	91 e0       	ldi	r25, 0x01	; 1
     96e:	f9 07       	cpc	r31, r25
     970:	91 f4       	brne	.+36     	; 0x996 <__stack+0x97>
			PORTD |= (1<<PD1);
     972:	8b b1       	in	r24, 0x0b	; 11
     974:	82 60       	ori	r24, 0x02	; 2
     976:	8b b9       	out	0x0b, r24	; 11
     978:	89 e2       	ldi	r24, 0x29	; 41
     97a:	92 e0       	ldi	r25, 0x02	; 2
     97c:	01 97       	sbiw	r24, 0x01	; 1
     97e:	f1 f7       	brne	.-4      	; 0x97c <__stack+0x7d>
     980:	00 c0       	rjmp	.+0      	; 0x982 <__stack+0x83>
     982:	00 00       	nop
			_delay_us(277);
			PORTD &= ~(1<<PD1);
     984:	8b b1       	in	r24, 0x0b	; 11
     986:	8d 7f       	andi	r24, 0xFD	; 253
     988:	8b b9       	out	0x0b, r24	; 11
     98a:	89 e2       	ldi	r24, 0x29	; 41
     98c:	92 e0       	ldi	r25, 0x02	; 2
     98e:	01 97       	sbiw	r24, 0x01	; 1
     990:	f1 f7       	brne	.-4      	; 0x98e <__stack+0x8f>
     992:	00 c0       	rjmp	.+0      	; 0x994 <__stack+0x95>
     994:	00 00       	nop
		_delay_us(277);}

		if (delay==NOTE_D5){
     996:	e6 30       	cpi	r30, 0x06	; 6
     998:	91 e0       	ldi	r25, 0x01	; 1
     99a:	f9 07       	cpc	r31, r25
     99c:	91 f4       	brne	.+36     	; 0x9c2 <__stack+0xc3>
			PORTD |= (1<<PD1);
     99e:	8b b1       	in	r24, 0x0b	; 11
     9a0:	82 60       	ori	r24, 0x02	; 2
     9a2:	8b b9       	out	0x0b, r24	; 11
     9a4:	8b e0       	ldi	r24, 0x0B	; 11
     9a6:	92 e0       	ldi	r25, 0x02	; 2
     9a8:	01 97       	sbiw	r24, 0x01	; 1
     9aa:	f1 f7       	brne	.-4      	; 0x9a8 <__stack+0xa9>
     9ac:	00 c0       	rjmp	.+0      	; 0x9ae <__stack+0xaf>
     9ae:	00 00       	nop
			_delay_us(262);
			PORTD &= ~(1<<PD1);
     9b0:	8b b1       	in	r24, 0x0b	; 11
     9b2:	8d 7f       	andi	r24, 0xFD	; 253
     9b4:	8b b9       	out	0x0b, r24	; 11
     9b6:	8b e0       	ldi	r24, 0x0B	; 11
     9b8:	92 e0       	ldi	r25, 0x02	; 2
     9ba:	01 97       	sbiw	r24, 0x01	; 1
     9bc:	f1 f7       	brne	.-4      	; 0x9ba <__stack+0xbb>
     9be:	00 c0       	rjmp	.+0      	; 0x9c0 <__stack+0xc1>
     9c0:	00 00       	nop
		_delay_us(262);}

		if (delay==NOTE_DS5){
     9c2:	e7 3f       	cpi	r30, 0xF7	; 247
     9c4:	f1 05       	cpc	r31, r1
     9c6:	91 f4       	brne	.+36     	; 0x9ec <__stack+0xed>
			PORTD |= (1<<PD1);
     9c8:	8b b1       	in	r24, 0x0b	; 11
     9ca:	82 60       	ori	r24, 0x02	; 2
     9cc:	8b b9       	out	0x0b, r24	; 11
     9ce:	8d ee       	ldi	r24, 0xED	; 237
     9d0:	91 e0       	ldi	r25, 0x01	; 1
     9d2:	01 97       	sbiw	r24, 0x01	; 1
     9d4:	f1 f7       	brne	.-4      	; 0x9d2 <__stack+0xd3>
     9d6:	00 c0       	rjmp	.+0      	; 0x9d8 <__stack+0xd9>
     9d8:	00 00       	nop
			_delay_us(247);
			PORTD &= ~(1<<PD1);
     9da:	8b b1       	in	r24, 0x0b	; 11
     9dc:	8d 7f       	andi	r24, 0xFD	; 253
     9de:	8b b9       	out	0x0b, r24	; 11
     9e0:	8d ee       	ldi	r24, 0xED	; 237
     9e2:	91 e0       	ldi	r25, 0x01	; 1
     9e4:	01 97       	sbiw	r24, 0x01	; 1
     9e6:	f1 f7       	brne	.-4      	; 0x9e4 <__stack+0xe5>
     9e8:	00 c0       	rjmp	.+0      	; 0x9ea <__stack+0xeb>
     9ea:	00 00       	nop
		_delay_us(247);}

		if (delay==NOTE_E5){
     9ec:	e9 3e       	cpi	r30, 0xE9	; 233
     9ee:	f1 05       	cpc	r31, r1
     9f0:	91 f4       	brne	.+36     	; 0xa16 <__stack+0x117>
			PORTD |= (1<<PD1);
     9f2:	8b b1       	in	r24, 0x0b	; 11
     9f4:	82 60       	ori	r24, 0x02	; 2
     9f6:	8b b9       	out	0x0b, r24	; 11
     9f8:	81 ed       	ldi	r24, 0xD1	; 209
     9fa:	91 e0       	ldi	r25, 0x01	; 1
     9fc:	01 97       	sbiw	r24, 0x01	; 1
     9fe:	f1 f7       	brne	.-4      	; 0x9fc <__stack+0xfd>
     a00:	00 c0       	rjmp	.+0      	; 0xa02 <__stack+0x103>
     a02:	00 00       	nop
			_delay_us(233);
			PORTD &= ~(1<<PD1);
     a04:	8b b1       	in	r24, 0x0b	; 11
     a06:	8d 7f       	andi	r24, 0xFD	; 253
     a08:	8b b9       	out	0x0b, r24	; 11
     a0a:	81 ed       	ldi	r24, 0xD1	; 209
     a0c:	91 e0       	ldi	r25, 0x01	; 1
     a0e:	01 97       	sbiw	r24, 0x01	; 1
     a10:	f1 f7       	brne	.-4      	; 0xa0e <__stack+0x10f>
     a12:	00 c0       	rjmp	.+0      	; 0xa14 <__stack+0x115>
     a14:	00 00       	nop
		_delay_us(233);}

		if (delay==NOTE_F5){
     a16:	ec 3d       	cpi	r30, 0xDC	; 220
     a18:	f1 05       	cpc	r31, r1
     a1a:	91 f4       	brne	.+36     	; 0xa40 <__stack+0x141>
			PORTD |= (1<<PD1);
     a1c:	8b b1       	in	r24, 0x0b	; 11
     a1e:	82 60       	ori	r24, 0x02	; 2
     a20:	8b b9       	out	0x0b, r24	; 11
     a22:	87 eb       	ldi	r24, 0xB7	; 183
     a24:	91 e0       	ldi	r25, 0x01	; 1
     a26:	01 97       	sbiw	r24, 0x01	; 1
     a28:	f1 f7       	brne	.-4      	; 0xa26 <__stack+0x127>
     a2a:	00 c0       	rjmp	.+0      	; 0xa2c <__stack+0x12d>
     a2c:	00 00       	nop
			_delay_us(220);
			PORTD &= ~(1<<PD1);
     a2e:	8b b1       	in	r24, 0x0b	; 11
     a30:	8d 7f       	andi	r24, 0xFD	; 253
     a32:	8b b9       	out	0x0b, r24	; 11
     a34:	87 eb       	ldi	r24, 0xB7	; 183
     a36:	91 e0       	ldi	r25, 0x01	; 1
     a38:	01 97       	sbiw	r24, 0x01	; 1
     a3a:	f1 f7       	brne	.-4      	; 0xa38 <__stack+0x139>
     a3c:	00 c0       	rjmp	.+0      	; 0xa3e <__stack+0x13f>
     a3e:	00 00       	nop
		_delay_us(220);}

		if (delay==NOTE_FS5){
     a40:	e0 3d       	cpi	r30, 0xD0	; 208
     a42:	f1 05       	cpc	r31, r1
     a44:	91 f4       	brne	.+36     	; 0xa6a <__stack+0x16b>
			PORTD |= (1<<PD1);
     a46:	8b b1       	in	r24, 0x0b	; 11
     a48:	82 60       	ori	r24, 0x02	; 2
     a4a:	8b b9       	out	0x0b, r24	; 11
     a4c:	8f e9       	ldi	r24, 0x9F	; 159
     a4e:	91 e0       	ldi	r25, 0x01	; 1
     a50:	01 97       	sbiw	r24, 0x01	; 1
     a52:	f1 f7       	brne	.-4      	; 0xa50 <__stack+0x151>
     a54:	00 c0       	rjmp	.+0      	; 0xa56 <__stack+0x157>
     a56:	00 00       	nop
			_delay_us(208);
			PORTD &= ~(1<<PD1);
     a58:	8b b1       	in	r24, 0x0b	; 11
     a5a:	8d 7f       	andi	r24, 0xFD	; 253
     a5c:	8b b9       	out	0x0b, r24	; 11
     a5e:	8f e9       	ldi	r24, 0x9F	; 159
     a60:	91 e0       	ldi	r25, 0x01	; 1
     a62:	01 97       	sbiw	r24, 0x01	; 1
     a64:	f1 f7       	brne	.-4      	; 0xa62 <__stack+0x163>
     a66:	00 c0       	rjmp	.+0      	; 0xa68 <__stack+0x169>
     a68:	00 00       	nop
		_delay_us(208);}

		if (delay==NOTE_G5){
     a6a:	e4 3c       	cpi	r30, 0xC4	; 196
     a6c:	f1 05       	cpc	r31, r1
     a6e:	91 f4       	brne	.+36     	; 0xa94 <__stack+0x195>
			PORTD |= (1<<PD1);
     a70:	8b b1       	in	r24, 0x0b	; 11
     a72:	82 60       	ori	r24, 0x02	; 2
     a74:	8b b9       	out	0x0b, r24	; 11
     a76:	87 e8       	ldi	r24, 0x87	; 135
     a78:	91 e0       	ldi	r25, 0x01	; 1
     a7a:	01 97       	sbiw	r24, 0x01	; 1
     a7c:	f1 f7       	brne	.-4      	; 0xa7a <__stack+0x17b>
     a7e:	00 c0       	rjmp	.+0      	; 0xa80 <__stack+0x181>
     a80:	00 00       	nop
			_delay_us(196);
			PORTD &= ~(1<<PD1);
     a82:	8b b1       	in	r24, 0x0b	; 11
     a84:	8d 7f       	andi	r24, 0xFD	; 253
     a86:	8b b9       	out	0x0b, r24	; 11
     a88:	87 e8       	ldi	r24, 0x87	; 135
     a8a:	91 e0       	ldi	r25, 0x01	; 1
     a8c:	01 97       	sbiw	r24, 0x01	; 1
     a8e:	f1 f7       	brne	.-4      	; 0xa8c <__stack+0x18d>
     a90:	00 c0       	rjmp	.+0      	; 0xa92 <__stack+0x193>
     a92:	00 00       	nop
		_delay_us(196);}

		if (delay==NOTE_GS5){
     a94:	e9 3b       	cpi	r30, 0xB9	; 185
     a96:	f1 05       	cpc	r31, r1
     a98:	91 f4       	brne	.+36     	; 0xabe <__stack+0x1bf>
			PORTD |= (1<<PD1);
     a9a:	8b b1       	in	r24, 0x0b	; 11
     a9c:	82 60       	ori	r24, 0x02	; 2
     a9e:	8b b9       	out	0x0b, r24	; 11
     aa0:	81 e7       	ldi	r24, 0x71	; 113
     aa2:	91 e0       	ldi	r25, 0x01	; 1
     aa4:	01 97       	sbiw	r24, 0x01	; 1
     aa6:	f1 f7       	brne	.-4      	; 0xaa4 <__stack+0x1a5>
     aa8:	00 c0       	rjmp	.+0      	; 0xaaa <__stack+0x1ab>
     aaa:	00 00       	nop
			_delay_us(185);
			PORTD &= ~(1<<PD1);
     aac:	8b b1       	in	r24, 0x0b	; 11
     aae:	8d 7f       	andi	r24, 0xFD	; 253
     ab0:	8b b9       	out	0x0b, r24	; 11
     ab2:	81 e7       	ldi	r24, 0x71	; 113
     ab4:	91 e0       	ldi	r25, 0x01	; 1
     ab6:	01 97       	sbiw	r24, 0x01	; 1
     ab8:	f1 f7       	brne	.-4      	; 0xab6 <__stack+0x1b7>
     aba:	00 c0       	rjmp	.+0      	; 0xabc <__stack+0x1bd>
     abc:	00 00       	nop
		_delay_us(185);}

		if (delay==NOTE_A5){
     abe:	ef 3a       	cpi	r30, 0xAF	; 175
     ac0:	f1 05       	cpc	r31, r1
     ac2:	91 f4       	brne	.+36     	; 0xae8 <__stack+0x1e9>
			PORTD |= (1<<PD1);
     ac4:	8b b1       	in	r24, 0x0b	; 11
     ac6:	82 60       	ori	r24, 0x02	; 2
     ac8:	8b b9       	out	0x0b, r24	; 11
     aca:	8d e5       	ldi	r24, 0x5D	; 93
     acc:	91 e0       	ldi	r25, 0x01	; 1
     ace:	01 97       	sbiw	r24, 0x01	; 1
     ad0:	f1 f7       	brne	.-4      	; 0xace <__stack+0x1cf>
     ad2:	00 c0       	rjmp	.+0      	; 0xad4 <__stack+0x1d5>
     ad4:	00 00       	nop
			_delay_us(175);
			PORTD &= ~(1<<PD1);
     ad6:	8b b1       	in	r24, 0x0b	; 11
     ad8:	8d 7f       	andi	r24, 0xFD	; 253
     ada:	8b b9       	out	0x0b, r24	; 11
     adc:	8d e5       	ldi	r24, 0x5D	; 93
     ade:	91 e0       	ldi	r25, 0x01	; 1
     ae0:	01 97       	sbiw	r24, 0x01	; 1
     ae2:	f1 f7       	brne	.-4      	; 0xae0 <__stack+0x1e1>
     ae4:	00 c0       	rjmp	.+0      	; 0xae6 <__stack+0x1e7>
     ae6:	00 00       	nop
		_delay_us(175);}

		if (delay==NOTE_AS5){
     ae8:	e5 3a       	cpi	r30, 0xA5	; 165
     aea:	f1 05       	cpc	r31, r1
     aec:	91 f4       	brne	.+36     	; 0xb12 <__stack+0x213>
			PORTD |= (1<<PD1);
     aee:	8b b1       	in	r24, 0x0b	; 11
     af0:	82 60       	ori	r24, 0x02	; 2
     af2:	8b b9       	out	0x0b, r24	; 11
     af4:	89 e4       	ldi	r24, 0x49	; 73
     af6:	91 e0       	ldi	r25, 0x01	; 1
     af8:	01 97       	sbiw	r24, 0x01	; 1
     afa:	f1 f7       	brne	.-4      	; 0xaf8 <__stack+0x1f9>
     afc:	00 c0       	rjmp	.+0      	; 0xafe <__stack+0x1ff>
     afe:	00 00       	nop
			_delay_us(165);
			PORTD &= ~(1<<PD1);
     b00:	8b b1       	in	r24, 0x0b	; 11
     b02:	8d 7f       	andi	r24, 0xFD	; 253
     b04:	8b b9       	out	0x0b, r24	; 11
     b06:	89 e4       	ldi	r24, 0x49	; 73
     b08:	91 e0       	ldi	r25, 0x01	; 1
     b0a:	01 97       	sbiw	r24, 0x01	; 1
     b0c:	f1 f7       	brne	.-4      	; 0xb0a <__stack+0x20b>
     b0e:	00 c0       	rjmp	.+0      	; 0xb10 <__stack+0x211>
     b10:	00 00       	nop
		_delay_us(165);}

		if (delay==NOTE_B5){
     b12:	ec 39       	cpi	r30, 0x9C	; 156
     b14:	f1 05       	cpc	r31, r1
     b16:	91 f4       	brne	.+36     	; 0xb3c <__stack+0x23d>
			PORTD |= (1<<PD1);
     b18:	8b b1       	in	r24, 0x0b	; 11
     b1a:	82 60       	ori	r24, 0x02	; 2
     b1c:	8b b9       	out	0x0b, r24	; 11
     b1e:	87 e3       	ldi	r24, 0x37	; 55
     b20:	91 e0       	ldi	r25, 0x01	; 1
     b22:	01 97       	sbiw	r24, 0x01	; 1
     b24:	f1 f7       	brne	.-4      	; 0xb22 <__stack+0x223>
     b26:	00 c0       	rjmp	.+0      	; 0xb28 <__stack+0x229>
     b28:	00 00       	nop
			_delay_us(156);
			PORTD &= ~(1<<PD1);
     b2a:	8b b1       	in	r24, 0x0b	; 11
     b2c:	8d 7f       	andi	r24, 0xFD	; 253
     b2e:	8b b9       	out	0x0b, r24	; 11
     b30:	87 e3       	ldi	r24, 0x37	; 55
     b32:	91 e0       	ldi	r25, 0x01	; 1
     b34:	01 97       	sbiw	r24, 0x01	; 1
     b36:	f1 f7       	brne	.-4      	; 0xb34 <__stack+0x235>
     b38:	00 c0       	rjmp	.+0      	; 0xb3a <__stack+0x23b>
     b3a:	00 00       	nop
		_delay_us(156);}

		if (delay==NOTE_C6){
     b3c:	e3 39       	cpi	r30, 0x93	; 147
     b3e:	f1 05       	cpc	r31, r1
     b40:	91 f4       	brne	.+36     	; 0xb66 <__stack+0x267>
			PORTD |= (1<<PD1);
     b42:	8b b1       	in	r24, 0x0b	; 11
     b44:	82 60       	ori	r24, 0x02	; 2
     b46:	8b b9       	out	0x0b, r24	; 11
     b48:	85 e2       	ldi	r24, 0x25	; 37
     b4a:	91 e0       	ldi	r25, 0x01	; 1
     b4c:	01 97       	sbiw	r24, 0x01	; 1
     b4e:	f1 f7       	brne	.-4      	; 0xb4c <__stack+0x24d>
     b50:	00 c0       	rjmp	.+0      	; 0xb52 <__stack+0x253>
     b52:	00 00       	nop
			_delay_us(147);
			PORTD &= ~(1<<PD1);
     b54:	8b b1       	in	r24, 0x0b	; 11
     b56:	8d 7f       	andi	r24, 0xFD	; 253
     b58:	8b b9       	out	0x0b, r24	; 11
     b5a:	85 e2       	ldi	r24, 0x25	; 37
     b5c:	91 e0       	ldi	r25, 0x01	; 1
     b5e:	01 97       	sbiw	r24, 0x01	; 1
     b60:	f1 f7       	brne	.-4      	; 0xb5e <__stack+0x25f>
     b62:	00 c0       	rjmp	.+0      	; 0xb64 <__stack+0x265>
     b64:	00 00       	nop
		_delay_us(147);}

		if (delay==NOTE_CS6){
     b66:	eb 38       	cpi	r30, 0x8B	; 139
     b68:	f1 05       	cpc	r31, r1
     b6a:	91 f4       	brne	.+36     	; 0xb90 <__stack+0x291>
			PORTD |= (1<<PD1);
     b6c:	8b b1       	in	r24, 0x0b	; 11
     b6e:	82 60       	ori	r24, 0x02	; 2
     b70:	8b b9       	out	0x0b, r24	; 11
     b72:	85 e1       	ldi	r24, 0x15	; 21
     b74:	91 e0       	ldi	r25, 0x01	; 1
     b76:	01 97       	sbiw	r24, 0x01	; 1
     b78:	f1 f7       	brne	.-4      	; 0xb76 <__stack+0x277>
     b7a:	00 c0       	rjmp	.+0      	; 0xb7c <__stack+0x27d>
     b7c:	00 00       	nop
			_delay_us(139);
			PORTD &= ~(1<<PD1);
     b7e:	8b b1       	in	r24, 0x0b	; 11
     b80:	8d 7f       	andi	r24, 0xFD	; 253
     b82:	8b b9       	out	0x0b, r24	; 11
     b84:	85 e1       	ldi	r24, 0x15	; 21
     b86:	91 e0       	ldi	r25, 0x01	; 1
     b88:	01 97       	sbiw	r24, 0x01	; 1
     b8a:	f1 f7       	brne	.-4      	; 0xb88 <__stack+0x289>
     b8c:	00 c0       	rjmp	.+0      	; 0xb8e <__stack+0x28f>
     b8e:	00 00       	nop
		_delay_us(139);}

		if (delay==NOTE_D6){
     b90:	e3 38       	cpi	r30, 0x83	; 131
     b92:	f1 05       	cpc	r31, r1
     b94:	91 f4       	brne	.+36     	; 0xbba <__stack+0x2bb>
			PORTD |= (1<<PD1);
     b96:	8b b1       	in	r24, 0x0b	; 11
     b98:	82 60       	ori	r24, 0x02	; 2
     b9a:	8b b9       	out	0x0b, r24	; 11
     b9c:	85 e0       	ldi	r24, 0x05	; 5
     b9e:	91 e0       	ldi	r25, 0x01	; 1
     ba0:	01 97       	sbiw	r24, 0x01	; 1
     ba2:	f1 f7       	brne	.-4      	; 0xba0 <__stack+0x2a1>
     ba4:	00 c0       	rjmp	.+0      	; 0xba6 <__stack+0x2a7>
     ba6:	00 00       	nop
			_delay_us(131);
			PORTD &= ~(1<<PD1);
     ba8:	8b b1       	in	r24, 0x0b	; 11
     baa:	8d 7f       	andi	r24, 0xFD	; 253
     bac:	8b b9       	out	0x0b, r24	; 11
     bae:	85 e0       	ldi	r24, 0x05	; 5
     bb0:	91 e0       	ldi	r25, 0x01	; 1
     bb2:	01 97       	sbiw	r24, 0x01	; 1
     bb4:	f1 f7       	brne	.-4      	; 0xbb2 <__stack+0x2b3>
     bb6:	00 c0       	rjmp	.+0      	; 0xbb8 <__stack+0x2b9>
     bb8:	00 00       	nop
		_delay_us(131);}

		if (delay==NOTE_DS6){
     bba:	eb 37       	cpi	r30, 0x7B	; 123
     bbc:	f1 05       	cpc	r31, r1
     bbe:	91 f4       	brne	.+36     	; 0xbe4 <__stack+0x2e5>
			PORTD |= (1<<PD1);
     bc0:	8b b1       	in	r24, 0x0b	; 11
     bc2:	82 60       	ori	r24, 0x02	; 2
     bc4:	8b b9       	out	0x0b, r24	; 11
     bc6:	85 ef       	ldi	r24, 0xF5	; 245
     bc8:	90 e0       	ldi	r25, 0x00	; 0
     bca:	01 97       	sbiw	r24, 0x01	; 1
     bcc:	f1 f7       	brne	.-4      	; 0xbca <__stack+0x2cb>
     bce:	00 c0       	rjmp	.+0      	; 0xbd0 <__stack+0x2d1>
     bd0:	00 00       	nop
			_delay_us(123);
			PORTD &= ~(1<<PD1);
     bd2:	8b b1       	in	r24, 0x0b	; 11
     bd4:	8d 7f       	andi	r24, 0xFD	; 253
     bd6:	8b b9       	out	0x0b, r24	; 11
     bd8:	85 ef       	ldi	r24, 0xF5	; 245
     bda:	90 e0       	ldi	r25, 0x00	; 0
     bdc:	01 97       	sbiw	r24, 0x01	; 1
     bde:	f1 f7       	brne	.-4      	; 0xbdc <__stack+0x2dd>
     be0:	00 c0       	rjmp	.+0      	; 0xbe2 <__stack+0x2e3>
     be2:	00 00       	nop
		_delay_us(123);}

		if (delay==NOTE_E6){
     be4:	e5 37       	cpi	r30, 0x75	; 117
     be6:	f1 05       	cpc	r31, r1
     be8:	91 f4       	brne	.+36     	; 0xc0e <__stack+0x30f>
			PORTD |= (1<<PD1);
     bea:	8b b1       	in	r24, 0x0b	; 11
     bec:	82 60       	ori	r24, 0x02	; 2
     bee:	8b b9       	out	0x0b, r24	; 11
     bf0:	89 ee       	ldi	r24, 0xE9	; 233
     bf2:	90 e0       	ldi	r25, 0x00	; 0
     bf4:	01 97       	sbiw	r24, 0x01	; 1
     bf6:	f1 f7       	brne	.-4      	; 0xbf4 <__stack+0x2f5>
     bf8:	00 c0       	rjmp	.+0      	; 0xbfa <__stack+0x2fb>
     bfa:	00 00       	nop
			_delay_us(117);
			PORTD &= ~(1<<PD1);
     bfc:	8b b1       	in	r24, 0x0b	; 11
     bfe:	8d 7f       	andi	r24, 0xFD	; 253
     c00:	8b b9       	out	0x0b, r24	; 11
     c02:	89 ee       	ldi	r24, 0xE9	; 233
     c04:	90 e0       	ldi	r25, 0x00	; 0
     c06:	01 97       	sbiw	r24, 0x01	; 1
     c08:	f1 f7       	brne	.-4      	; 0xc06 <__stack+0x307>
     c0a:	00 c0       	rjmp	.+0      	; 0xc0c <__stack+0x30d>
     c0c:	00 00       	nop
		_delay_us(117);}

		if (delay==NOTE_F6){
     c0e:	ee 36       	cpi	r30, 0x6E	; 110
     c10:	f1 05       	cpc	r31, r1
     c12:	91 f4       	brne	.+36     	; 0xc38 <__stack+0x339>
			PORTD |= (1<<PD1);
     c14:	8b b1       	in	r24, 0x0b	; 11
     c16:	82 60       	ori	r24, 0x02	; 2
     c18:	8b b9       	out	0x0b, r24	; 11
     c1a:	8b ed       	ldi	r24, 0xDB	; 219
     c1c:	90 e0       	ldi	r25, 0x00	; 0
     c1e:	01 97       	sbiw	r24, 0x01	; 1
     c20:	f1 f7       	brne	.-4      	; 0xc1e <__stack+0x31f>
     c22:	00 c0       	rjmp	.+0      	; 0xc24 <__stack+0x325>
     c24:	00 00       	nop
			_delay_us(110);
			PORTD &= ~(1<<PD1);
     c26:	8b b1       	in	r24, 0x0b	; 11
     c28:	8d 7f       	andi	r24, 0xFD	; 253
     c2a:	8b b9       	out	0x0b, r24	; 11
     c2c:	8b ed       	ldi	r24, 0xDB	; 219
     c2e:	90 e0       	ldi	r25, 0x00	; 0
     c30:	01 97       	sbiw	r24, 0x01	; 1
     c32:	f1 f7       	brne	.-4      	; 0xc30 <__stack+0x331>
     c34:	00 c0       	rjmp	.+0      	; 0xc36 <__stack+0x337>
     c36:	00 00       	nop
		_delay_us(110);}

		if (delay==NOTE_FS6){
     c38:	e8 36       	cpi	r30, 0x68	; 104
     c3a:	f1 05       	cpc	r31, r1
     c3c:	91 f4       	brne	.+36     	; 0xc62 <__stack+0x363>
			PORTD |= (1<<PD1);
     c3e:	8b b1       	in	r24, 0x0b	; 11
     c40:	82 60       	ori	r24, 0x02	; 2
     c42:	8b b9       	out	0x0b, r24	; 11
     c44:	8f ec       	ldi	r24, 0xCF	; 207
     c46:	90 e0       	ldi	r25, 0x00	; 0
     c48:	01 97       	sbiw	r24, 0x01	; 1
     c4a:	f1 f7       	brne	.-4      	; 0xc48 <__stack+0x349>
     c4c:	00 c0       	rjmp	.+0      	; 0xc4e <__stack+0x34f>
     c4e:	00 00       	nop
			_delay_us(104);
			PORTD &= ~(1<<PD1);
     c50:	8b b1       	in	r24, 0x0b	; 11
     c52:	8d 7f       	andi	r24, 0xFD	; 253
     c54:	8b b9       	out	0x0b, r24	; 11
     c56:	8f ec       	ldi	r24, 0xCF	; 207
     c58:	90 e0       	ldi	r25, 0x00	; 0
     c5a:	01 97       	sbiw	r24, 0x01	; 1
     c5c:	f1 f7       	brne	.-4      	; 0xc5a <__stack+0x35b>
     c5e:	00 c0       	rjmp	.+0      	; 0xc60 <__stack+0x361>
     c60:	00 00       	nop
		_delay_us(104);}

		if (delay==NOTE_G6){
     c62:	e2 36       	cpi	r30, 0x62	; 98
     c64:	f1 05       	cpc	r31, r1
     c66:	91 f4       	brne	.+36     	; 0xc8c <__stack+0x38d>
			PORTD |= (1<<PD1);
     c68:	8b b1       	in	r24, 0x0b	; 11
     c6a:	82 60       	ori	r24, 0x02	; 2
     c6c:	8b b9       	out	0x0b, r24	; 11
     c6e:	83 ec       	ldi	r24, 0xC3	; 195
     c70:	90 e0       	ldi	r25, 0x00	; 0
     c72:	01 97       	sbiw	r24, 0x01	; 1
     c74:	f1 f7       	brne	.-4      	; 0xc72 <__stack+0x373>
     c76:	00 c0       	rjmp	.+0      	; 0xc78 <__stack+0x379>
     c78:	00 00       	nop
			_delay_us(98);
			PORTD &= ~(1<<PD1);
     c7a:	8b b1       	in	r24, 0x0b	; 11
     c7c:	8d 7f       	andi	r24, 0xFD	; 253
     c7e:	8b b9       	out	0x0b, r24	; 11
     c80:	83 ec       	ldi	r24, 0xC3	; 195
     c82:	90 e0       	ldi	r25, 0x00	; 0
     c84:	01 97       	sbiw	r24, 0x01	; 1
     c86:	f1 f7       	brne	.-4      	; 0xc84 <__stack+0x385>
     c88:	00 c0       	rjmp	.+0      	; 0xc8a <__stack+0x38b>
     c8a:	00 00       	nop
		_delay_us(98);}

		if (delay==NOTE_GS6){
     c8c:	ed 35       	cpi	r30, 0x5D	; 93
     c8e:	f1 05       	cpc	r31, r1
     c90:	61 f4       	brne	.+24     	; 0xcaa <__stack+0x3ab>
			PORTD |= (1<<PD1);
     c92:	8b b1       	in	r24, 0x0b	; 11
     c94:	82 60       	ori	r24, 0x02	; 2
     c96:	8b b9       	out	0x0b, r24	; 11
     c98:	98 ef       	ldi	r25, 0xF8	; 248
     c9a:	9a 95       	dec	r25
     c9c:	f1 f7       	brne	.-4      	; 0xc9a <__stack+0x39b>
			_delay_us(93);
			PORTD &= ~(1<<PD1);
     c9e:	8b b1       	in	r24, 0x0b	; 11
     ca0:	8d 7f       	andi	r24, 0xFD	; 253
     ca2:	8b b9       	out	0x0b, r24	; 11
     ca4:	88 ef       	ldi	r24, 0xF8	; 248
     ca6:	8a 95       	dec	r24
     ca8:	f1 f7       	brne	.-4      	; 0xca6 <__stack+0x3a7>
		_delay_us(93);}

		if (delay==NOTE_A6){
     caa:	e7 35       	cpi	r30, 0x57	; 87
     cac:	f1 05       	cpc	r31, r1
     cae:	61 f4       	brne	.+24     	; 0xcc8 <__stack+0x3c9>
			PORTD |= (1<<PD1);
     cb0:	8b b1       	in	r24, 0x0b	; 11
     cb2:	82 60       	ori	r24, 0x02	; 2
     cb4:	8b b9       	out	0x0b, r24	; 11
     cb6:	98 ee       	ldi	r25, 0xE8	; 232
     cb8:	9a 95       	dec	r25
     cba:	f1 f7       	brne	.-4      	; 0xcb8 <__stack+0x3b9>
			_delay_us(87);
			PORTD &= ~(1<<PD1);
     cbc:	8b b1       	in	r24, 0x0b	; 11
     cbe:	8d 7f       	andi	r24, 0xFD	; 253
     cc0:	8b b9       	out	0x0b, r24	; 11
     cc2:	88 ee       	ldi	r24, 0xE8	; 232
     cc4:	8a 95       	dec	r24
     cc6:	f1 f7       	brne	.-4      	; 0xcc4 <__stack+0x3c5>
		_delay_us(87);}

		if (delay==NOTE_AS6){
     cc8:	e2 35       	cpi	r30, 0x52	; 82
     cca:	f1 05       	cpc	r31, r1
     ccc:	71 f4       	brne	.+28     	; 0xcea <__stack+0x3eb>
			PORTD |= (1<<PD1);
     cce:	8b b1       	in	r24, 0x0b	; 11
     cd0:	82 60       	ori	r24, 0x02	; 2
     cd2:	8b b9       	out	0x0b, r24	; 11
     cd4:	9a ed       	ldi	r25, 0xDA	; 218
     cd6:	9a 95       	dec	r25
     cd8:	f1 f7       	brne	.-4      	; 0xcd6 <__stack+0x3d7>
     cda:	00 c0       	rjmp	.+0      	; 0xcdc <__stack+0x3dd>
			_delay_us(82);
			PORTD &= ~(1<<PD1);
     cdc:	8b b1       	in	r24, 0x0b	; 11
     cde:	8d 7f       	andi	r24, 0xFD	; 253
     ce0:	8b b9       	out	0x0b, r24	; 11
     ce2:	8a ed       	ldi	r24, 0xDA	; 218
     ce4:	8a 95       	dec	r24
     ce6:	f1 f7       	brne	.-4      	; 0xce4 <__stack+0x3e5>
     ce8:	00 c0       	rjmp	.+0      	; 0xcea <__stack+0x3eb>
		_delay_us(82);}

		if (delay==NOTE_B6){
     cea:	ee 34       	cpi	r30, 0x4E	; 78
     cec:	f1 05       	cpc	r31, r1
     cee:	61 f4       	brne	.+24     	; 0xd08 <__stack+0x409>
			PORTD |= (1<<PD1);
     cf0:	8b b1       	in	r24, 0x0b	; 11
     cf2:	82 60       	ori	r24, 0x02	; 2
     cf4:	8b b9       	out	0x0b, r24	; 11
     cf6:	90 ed       	ldi	r25, 0xD0	; 208
     cf8:	9a 95       	dec	r25
     cfa:	f1 f7       	brne	.-4      	; 0xcf8 <__stack+0x3f9>
			_delay_us(78);
			PORTD &= ~(1<<PD1);
     cfc:	8b b1       	in	r24, 0x0b	; 11
     cfe:	8d 7f       	andi	r24, 0xFD	; 253
     d00:	8b b9       	out	0x0b, r24	; 11
     d02:	80 ed       	ldi	r24, 0xD0	; 208
     d04:	8a 95       	dec	r24
     d06:	f1 f7       	brne	.-4      	; 0xd04 <__stack+0x405>
		_delay_us(78);}

		if (delay==NOTE_C7){
     d08:	e9 34       	cpi	r30, 0x49	; 73
     d0a:	f1 05       	cpc	r31, r1
     d0c:	71 f4       	brne	.+28     	; 0xd2a <__stack+0x42b>
			PORTD |= (1<<PD1);
     d0e:	8b b1       	in	r24, 0x0b	; 11
     d10:	82 60       	ori	r24, 0x02	; 2
     d12:	8b b9       	out	0x0b, r24	; 11
     d14:	92 ec       	ldi	r25, 0xC2	; 194
     d16:	9a 95       	dec	r25
     d18:	f1 f7       	brne	.-4      	; 0xd16 <__stack+0x417>
     d1a:	00 c0       	rjmp	.+0      	; 0xd1c <__stack+0x41d>
			_delay_us(73);
			PORTD &= ~(1<<PD1);
     d1c:	8b b1       	in	r24, 0x0b	; 11
     d1e:	8d 7f       	andi	r24, 0xFD	; 253
     d20:	8b b9       	out	0x0b, r24	; 11
     d22:	82 ec       	ldi	r24, 0xC2	; 194
     d24:	8a 95       	dec	r24
     d26:	f1 f7       	brne	.-4      	; 0xd24 <__stack+0x425>
     d28:	00 c0       	rjmp	.+0      	; 0xd2a <__stack+0x42b>
		_delay_us(73);}

		if (delay==NOTE_CS7){
     d2a:	e5 34       	cpi	r30, 0x45	; 69
     d2c:	f1 05       	cpc	r31, r1
     d2e:	61 f4       	brne	.+24     	; 0xd48 <__stack+0x449>
			PORTD |= (1<<PD1);
     d30:	8b b1       	in	r24, 0x0b	; 11
     d32:	82 60       	ori	r24, 0x02	; 2
     d34:	8b b9       	out	0x0b, r24	; 11
     d36:	98 eb       	ldi	r25, 0xB8	; 184
     d38:	9a 95       	dec	r25
     d3a:	f1 f7       	brne	.-4      	; 0xd38 <__stack+0x439>
			_delay_us(69);
			PORTD &= ~(1<<PD1);
     d3c:	8b b1       	in	r24, 0x0b	; 11
     d3e:	8d 7f       	andi	r24, 0xFD	; 253
     d40:	8b b9       	out	0x0b, r24	; 11
     d42:	88 eb       	ldi	r24, 0xB8	; 184
     d44:	8a 95       	dec	r24
     d46:	f1 f7       	brne	.-4      	; 0xd44 <__stack+0x445>
		_delay_us(69);}

		if (delay==NOTE_D7){
     d48:	e1 34       	cpi	r30, 0x41	; 65
     d4a:	f1 05       	cpc	r31, r1
     d4c:	71 f4       	brne	.+28     	; 0xd6a <__stack+0x46b>
			PORTD |= (1<<PD1);
     d4e:	8b b1       	in	r24, 0x0b	; 11
     d50:	82 60       	ori	r24, 0x02	; 2
     d52:	8b b9       	out	0x0b, r24	; 11
     d54:	9d ea       	ldi	r25, 0xAD	; 173
     d56:	9a 95       	dec	r25
     d58:	f1 f7       	brne	.-4      	; 0xd56 <__stack+0x457>
     d5a:	00 00       	nop
			_delay_us(65);
			PORTD &= ~(1<<PD1);
     d5c:	8b b1       	in	r24, 0x0b	; 11
     d5e:	8d 7f       	andi	r24, 0xFD	; 253
     d60:	8b b9       	out	0x0b, r24	; 11
     d62:	8d ea       	ldi	r24, 0xAD	; 173
     d64:	8a 95       	dec	r24
     d66:	f1 f7       	brne	.-4      	; 0xd64 <__stack+0x465>
     d68:	00 00       	nop
		_delay_us(65);}

		if (delay==NOTE_DS7){
     d6a:	ee 33       	cpi	r30, 0x3E	; 62
     d6c:	f1 05       	cpc	r31, r1
     d6e:	71 f4       	brne	.+28     	; 0xd8c <__stack+0x48d>
			PORTD |= (1<<PD1);
     d70:	8b b1       	in	r24, 0x0b	; 11
     d72:	82 60       	ori	r24, 0x02	; 2
     d74:	8b b9       	out	0x0b, r24	; 11
     d76:	95 ea       	ldi	r25, 0xA5	; 165
     d78:	9a 95       	dec	r25
     d7a:	f1 f7       	brne	.-4      	; 0xd78 <__stack+0x479>
     d7c:	00 00       	nop
			_delay_us(62);
			PORTD &= ~(1<<PD1);
     d7e:	8b b1       	in	r24, 0x0b	; 11
     d80:	8d 7f       	andi	r24, 0xFD	; 253
     d82:	8b b9       	out	0x0b, r24	; 11
     d84:	85 ea       	ldi	r24, 0xA5	; 165
     d86:	8a 95       	dec	r24
     d88:	f1 f7       	brne	.-4      	; 0xd86 <__stack+0x487>
     d8a:	00 00       	nop
		_delay_us(62);}

		if (delay==NOTE_E7){
     d8c:	ea 33       	cpi	r30, 0x3A	; 58
     d8e:	f1 05       	cpc	r31, r1
     d90:	71 f4       	brne	.+28     	; 0xdae <__stack+0x4af>
			PORTD |= (1<<PD1);
     d92:	8b b1       	in	r24, 0x0b	; 11
     d94:	82 60       	ori	r24, 0x02	; 2
     d96:	8b b9       	out	0x0b, r24	; 11
     d98:	9a e9       	ldi	r25, 0x9A	; 154
     d9a:	9a 95       	dec	r25
     d9c:	f1 f7       	brne	.-4      	; 0xd9a <__stack+0x49b>
     d9e:	00 c0       	rjmp	.+0      	; 0xda0 <__stack+0x4a1>
			_delay_us(58);
			PORTD &= ~(1<<PD1);
     da0:	8b b1       	in	r24, 0x0b	; 11
     da2:	8d 7f       	andi	r24, 0xFD	; 253
     da4:	8b b9       	out	0x0b, r24	; 11
     da6:	8a e9       	ldi	r24, 0x9A	; 154
     da8:	8a 95       	dec	r24
     daa:	f1 f7       	brne	.-4      	; 0xda8 <__stack+0x4a9>
     dac:	00 c0       	rjmp	.+0      	; 0xdae <__stack+0x4af>
		_delay_us(58);}

		if (delay==NOTE_F7){
     dae:	e7 33       	cpi	r30, 0x37	; 55
     db0:	f1 05       	cpc	r31, r1
     db2:	71 f4       	brne	.+28     	; 0xdd0 <__stack+0x4d1>
			PORTD |= (1<<PD1);
     db4:	8b b1       	in	r24, 0x0b	; 11
     db6:	82 60       	ori	r24, 0x02	; 2
     db8:	8b b9       	out	0x0b, r24	; 11
     dba:	92 e9       	ldi	r25, 0x92	; 146
     dbc:	9a 95       	dec	r25
     dbe:	f1 f7       	brne	.-4      	; 0xdbc <__stack+0x4bd>
     dc0:	00 c0       	rjmp	.+0      	; 0xdc2 <__stack+0x4c3>
			_delay_us(55);
			PORTD &= ~(1<<PD1);
     dc2:	8b b1       	in	r24, 0x0b	; 11
     dc4:	8d 7f       	andi	r24, 0xFD	; 253
     dc6:	8b b9       	out	0x0b, r24	; 11
     dc8:	82 e9       	ldi	r24, 0x92	; 146
     dca:	8a 95       	dec	r24
     dcc:	f1 f7       	brne	.-4      	; 0xdca <__stack+0x4cb>
     dce:	00 c0       	rjmp	.+0      	; 0xdd0 <__stack+0x4d1>
		_delay_us(55);}

		if (delay==NOTE_FS7){
     dd0:	e4 33       	cpi	r30, 0x34	; 52
     dd2:	f1 05       	cpc	r31, r1
     dd4:	71 f4       	brne	.+28     	; 0xdf2 <__stack+0x4f3>
			PORTD |= (1<<PD1);
     dd6:	8b b1       	in	r24, 0x0b	; 11
     dd8:	82 60       	ori	r24, 0x02	; 2
     dda:	8b b9       	out	0x0b, r24	; 11
     ddc:	9a e8       	ldi	r25, 0x8A	; 138
     dde:	9a 95       	dec	r25
     de0:	f1 f7       	brne	.-4      	; 0xdde <__stack+0x4df>
     de2:	00 c0       	rjmp	.+0      	; 0xde4 <__stack+0x4e5>
			_delay_us(52);
			PORTD &= ~(1<<PD1);
     de4:	8b b1       	in	r24, 0x0b	; 11
     de6:	8d 7f       	andi	r24, 0xFD	; 253
     de8:	8b b9       	out	0x0b, r24	; 11
     dea:	8a e8       	ldi	r24, 0x8A	; 138
     dec:	8a 95       	dec	r24
     dee:	f1 f7       	brne	.-4      	; 0xdec <__stack+0x4ed>
     df0:	00 c0       	rjmp	.+0      	; 0xdf2 <__stack+0x4f3>
		_delay_us(52);}

		if (delay==NOTE_G7){
     df2:	e1 33       	cpi	r30, 0x31	; 49
     df4:	f1 05       	cpc	r31, r1
     df6:	71 f4       	brne	.+28     	; 0xe14 <__stack+0x515>
			PORTD |= (1<<PD1);
     df8:	8b b1       	in	r24, 0x0b	; 11
     dfa:	82 60       	ori	r24, 0x02	; 2
     dfc:	8b b9       	out	0x0b, r24	; 11
     dfe:	92 e8       	ldi	r25, 0x82	; 130
     e00:	9a 95       	dec	r25
     e02:	f1 f7       	brne	.-4      	; 0xe00 <__stack+0x501>
     e04:	00 c0       	rjmp	.+0      	; 0xe06 <__stack+0x507>
			_delay_us(49);
			PORTD &= ~(1<<PD1);
     e06:	8b b1       	in	r24, 0x0b	; 11
     e08:	8d 7f       	andi	r24, 0xFD	; 253
     e0a:	8b b9       	out	0x0b, r24	; 11
     e0c:	82 e8       	ldi	r24, 0x82	; 130
     e0e:	8a 95       	dec	r24
     e10:	f1 f7       	brne	.-4      	; 0xe0e <__stack+0x50f>
     e12:	00 c0       	rjmp	.+0      	; 0xe14 <__stack+0x515>
		_delay_us(49);}

		if (delay==NOTE_GS7){
     e14:	ee 32       	cpi	r30, 0x2E	; 46
     e16:	f1 05       	cpc	r31, r1
     e18:	71 f4       	brne	.+28     	; 0xe36 <__stack+0x537>
			PORTD |= (1<<PD1);
     e1a:	8b b1       	in	r24, 0x0b	; 11
     e1c:	82 60       	ori	r24, 0x02	; 2
     e1e:	8b b9       	out	0x0b, r24	; 11
     e20:	9a e7       	ldi	r25, 0x7A	; 122
     e22:	9a 95       	dec	r25
     e24:	f1 f7       	brne	.-4      	; 0xe22 <__stack+0x523>
     e26:	00 c0       	rjmp	.+0      	; 0xe28 <__stack+0x529>
			_delay_us(46);
			PORTD &= ~(1<<PD1);
     e28:	8b b1       	in	r24, 0x0b	; 11
     e2a:	8d 7f       	andi	r24, 0xFD	; 253
     e2c:	8b b9       	out	0x0b, r24	; 11
     e2e:	8a e7       	ldi	r24, 0x7A	; 122
     e30:	8a 95       	dec	r24
     e32:	f1 f7       	brne	.-4      	; 0xe30 <__stack+0x531>
     e34:	00 c0       	rjmp	.+0      	; 0xe36 <__stack+0x537>
		_delay_us(46);}

		if (delay==NOTE_A7){
     e36:	ec 32       	cpi	r30, 0x2C	; 44
     e38:	f1 05       	cpc	r31, r1
     e3a:	71 f4       	brne	.+28     	; 0xe58 <__stack+0x559>
			PORTD |= (1<<PD1);
     e3c:	8b b1       	in	r24, 0x0b	; 11
     e3e:	82 60       	ori	r24, 0x02	; 2
     e40:	8b b9       	out	0x0b, r24	; 11
     e42:	95 e7       	ldi	r25, 0x75	; 117
     e44:	9a 95       	dec	r25
     e46:	f1 f7       	brne	.-4      	; 0xe44 <__stack+0x545>
     e48:	00 00       	nop
			_delay_us(44);
			PORTD &= ~(1<<PD1);
     e4a:	8b b1       	in	r24, 0x0b	; 11
     e4c:	8d 7f       	andi	r24, 0xFD	; 253
     e4e:	8b b9       	out	0x0b, r24	; 11
     e50:	85 e7       	ldi	r24, 0x75	; 117
     e52:	8a 95       	dec	r24
     e54:	f1 f7       	brne	.-4      	; 0xe52 <__stack+0x553>
     e56:	00 00       	nop
		_delay_us(44);}

		if (delay==NOTE_AS7){
     e58:	e9 32       	cpi	r30, 0x29	; 41
     e5a:	f1 05       	cpc	r31, r1
     e5c:	71 f4       	brne	.+28     	; 0xe7a <__stack+0x57b>
			PORTD |= (1<<PD1);
     e5e:	8b b1       	in	r24, 0x0b	; 11
     e60:	82 60       	ori	r24, 0x02	; 2
     e62:	8b b9       	out	0x0b, r24	; 11
     e64:	9d e6       	ldi	r25, 0x6D	; 109
     e66:	9a 95       	dec	r25
     e68:	f1 f7       	brne	.-4      	; 0xe66 <__stack+0x567>
     e6a:	00 00       	nop
			_delay_us(41);
			PORTD &= ~(1<<PD1);
     e6c:	8b b1       	in	r24, 0x0b	; 11
     e6e:	8d 7f       	andi	r24, 0xFD	; 253
     e70:	8b b9       	out	0x0b, r24	; 11
     e72:	8d e6       	ldi	r24, 0x6D	; 109
     e74:	8a 95       	dec	r24
     e76:	f1 f7       	brne	.-4      	; 0xe74 <__stack+0x575>
     e78:	00 00       	nop
		_delay_us(41);}

		if (delay==NOTE_B7){
     e7a:	e7 32       	cpi	r30, 0x27	; 39
     e7c:	f1 05       	cpc	r31, r1
     e7e:	61 f4       	brne	.+24     	; 0xe98 <__stack+0x599>
			PORTD |= (1<<PD1);
     e80:	8b b1       	in	r24, 0x0b	; 11
     e82:	82 60       	ori	r24, 0x02	; 2
     e84:	8b b9       	out	0x0b, r24	; 11
     e86:	98 e6       	ldi	r25, 0x68	; 104
     e88:	9a 95       	dec	r25
     e8a:	f1 f7       	brne	.-4      	; 0xe88 <__stack+0x589>
			_delay_us(39);
			PORTD &= ~(1<<PD1);
     e8c:	8b b1       	in	r24, 0x0b	; 11
     e8e:	8d 7f       	andi	r24, 0xFD	; 253
     e90:	8b b9       	out	0x0b, r24	; 11
     e92:	88 e6       	ldi	r24, 0x68	; 104
     e94:	8a 95       	dec	r24
     e96:	f1 f7       	brne	.-4      	; 0xe94 <__stack+0x595>
		_delay_us(39);}

		if (delay==NOTE_C8){
     e98:	e5 32       	cpi	r30, 0x25	; 37
     e9a:	f1 05       	cpc	r31, r1
     e9c:	71 f4       	brne	.+28     	; 0xeba <__stack+0x5bb>
			PORTD |= (1<<PD1);
     e9e:	8b b1       	in	r24, 0x0b	; 11
     ea0:	82 60       	ori	r24, 0x02	; 2
     ea2:	8b b9       	out	0x0b, r24	; 11
     ea4:	92 e6       	ldi	r25, 0x62	; 98
     ea6:	9a 95       	dec	r25
     ea8:	f1 f7       	brne	.-4      	; 0xea6 <__stack+0x5a7>
     eaa:	00 c0       	rjmp	.+0      	; 0xeac <__stack+0x5ad>
			_delay_us(37);
			PORTD &= ~(1<<PD1);
     eac:	8b b1       	in	r24, 0x0b	; 11
     eae:	8d 7f       	andi	r24, 0xFD	; 253
     eb0:	8b b9       	out	0x0b, r24	; 11
     eb2:	82 e6       	ldi	r24, 0x62	; 98
     eb4:	8a 95       	dec	r24
     eb6:	f1 f7       	brne	.-4      	; 0xeb4 <__stack+0x5b5>
     eb8:	00 c0       	rjmp	.+0      	; 0xeba <__stack+0x5bb>
		_delay_us(37);}

		if (delay==NOTE_CS8){
     eba:	e3 32       	cpi	r30, 0x23	; 35
     ebc:	f1 05       	cpc	r31, r1
     ebe:	71 f4       	brne	.+28     	; 0xedc <__stack+0x5dd>
			PORTD |= (1<<PD1);
     ec0:	8b b1       	in	r24, 0x0b	; 11
     ec2:	82 60       	ori	r24, 0x02	; 2
     ec4:	8b b9       	out	0x0b, r24	; 11
     ec6:	9d e5       	ldi	r25, 0x5D	; 93
     ec8:	9a 95       	dec	r25
     eca:	f1 f7       	brne	.-4      	; 0xec8 <__stack+0x5c9>
     ecc:	00 00       	nop
			_delay_us(35);
			PORTD &= ~(1<<PD1);
     ece:	8b b1       	in	r24, 0x0b	; 11
     ed0:	8d 7f       	andi	r24, 0xFD	; 253
     ed2:	8b b9       	out	0x0b, r24	; 11
     ed4:	8d e5       	ldi	r24, 0x5D	; 93
     ed6:	8a 95       	dec	r24
     ed8:	f1 f7       	brne	.-4      	; 0xed6 <__stack+0x5d7>
     eda:	00 00       	nop
		_delay_us(35);}

		if (delay==NOTE_D8){
     edc:	e1 32       	cpi	r30, 0x21	; 33
     ede:	f1 05       	cpc	r31, r1
     ee0:	61 f4       	brne	.+24     	; 0xefa <__stack+0x5fb>
			PORTD |= (1<<PD1);
     ee2:	8b b1       	in	r24, 0x0b	; 11
     ee4:	82 60       	ori	r24, 0x02	; 2
     ee6:	8b b9       	out	0x0b, r24	; 11
     ee8:	98 e5       	ldi	r25, 0x58	; 88
     eea:	9a 95       	dec	r25
     eec:	f1 f7       	brne	.-4      	; 0xeea <__stack+0x5eb>
			_delay_us(33);
			PORTD &= ~(1<<PD1);
     eee:	8b b1       	in	r24, 0x0b	; 11
     ef0:	8d 7f       	andi	r24, 0xFD	; 253
     ef2:	8b b9       	out	0x0b, r24	; 11
     ef4:	88 e5       	ldi	r24, 0x58	; 88
     ef6:	8a 95       	dec	r24
     ef8:	f1 f7       	brne	.-4      	; 0xef6 <__stack+0x5f7>
		_delay_us(33);}

		if (delay==NOTE_DS8){
     efa:	ef 31       	cpi	r30, 0x1F	; 31
     efc:	f1 05       	cpc	r31, r1
     efe:	71 f4       	brne	.+28     	; 0xf1c <__stack+0x61d>
			PORTD |= (1<<PD1);
     f00:	8b b1       	in	r24, 0x0b	; 11
     f02:	82 60       	ori	r24, 0x02	; 2
     f04:	8b b9       	out	0x0b, r24	; 11
     f06:	92 e5       	ldi	r25, 0x52	; 82
     f08:	9a 95       	dec	r25
     f0a:	f1 f7       	brne	.-4      	; 0xf08 <__stack+0x609>
     f0c:	00 c0       	rjmp	.+0      	; 0xf0e <__stack+0x60f>
			_delay_us(31);
			PORTD &= ~(1<<PD1);
     f0e:	8b b1       	in	r24, 0x0b	; 11
     f10:	8d 7f       	andi	r24, 0xFD	; 253
     f12:	8b b9       	out	0x0b, r24	; 11
     f14:	82 e5       	ldi	r24, 0x52	; 82
     f16:	8a 95       	dec	r24
     f18:	f1 f7       	brne	.-4      	; 0xf16 <__stack+0x617>
     f1a:	00 c0       	rjmp	.+0      	; 0xf1c <__stack+0x61d>
		_delay_us(31);}




		cycles--;
     f1c:	61 50       	subi	r22, 0x01	; 1
     f1e:	71 09       	sbc	r23, r1
	// cycles = 100 * duration / (delay/50)
	uint16_t tmp = 100 * duration;
	uint16_t delaysm = delay / 50;
	uint16_t cycles = tmp / delaysm;
	
	while(cycles > 0) {
     f20:	d4 c8       	rjmp	.-3672   	; 0xca <_Z9play_tonejh+0x24>
     f22:	08 95       	ret

00000f24 <_Z3plav>:
	}
}

void pla(){

var=1;}
     f24:	81 e0       	ldi	r24, 0x01	; 1
     f26:	90 e0       	ldi	r25, 0x00	; 0
     f28:	90 93 2d 07 	sts	0x072D, r25	; 0x80072d <var+0x1>
     f2c:	80 93 2c 07 	sts	0x072C, r24	; 0x80072c <var>
     f30:	08 95       	ret

00000f32 <_Z3stov>:
void sto(){
	var=0;
     f32:	10 92 2d 07 	sts	0x072D, r1	; 0x80072d <var+0x1>
     f36:	10 92 2c 07 	sts	0x072C, r1	; 0x80072c <var>
     f3a:	08 95       	ret

00000f3c <__vector_1>:
}

ISR (INT0_vect)          //External interrupt_zero ISR
{
     f3c:	1f 92       	push	r1
     f3e:	0f 92       	push	r0
     f40:	0f b6       	in	r0, 0x3f	; 63
     f42:	0f 92       	push	r0
     f44:	11 24       	eor	r1, r1
     f46:	2f 93       	push	r18
     f48:	3f 93       	push	r19
     f4a:	4f 93       	push	r20
     f4c:	5f 93       	push	r21
     f4e:	6f 93       	push	r22
     f50:	7f 93       	push	r23
     f52:	8f 93       	push	r24
     f54:	9f 93       	push	r25
     f56:	af 93       	push	r26
     f58:	bf 93       	push	r27
     f5a:	ef 93       	push	r30
     f5c:	ff 93       	push	r31
	pla();
     f5e:	0e 94 92 07 	call	0xf24	; 0xf24 <_Z3plav>
	
	
}
     f62:	ff 91       	pop	r31
     f64:	ef 91       	pop	r30
     f66:	bf 91       	pop	r27
     f68:	af 91       	pop	r26
     f6a:	9f 91       	pop	r25
     f6c:	8f 91       	pop	r24
     f6e:	7f 91       	pop	r23
     f70:	6f 91       	pop	r22
     f72:	5f 91       	pop	r21
     f74:	4f 91       	pop	r20
     f76:	3f 91       	pop	r19
     f78:	2f 91       	pop	r18
     f7a:	0f 90       	pop	r0
     f7c:	0f be       	out	0x3f, r0	; 63
     f7e:	0f 90       	pop	r0
     f80:	1f 90       	pop	r1
     f82:	18 95       	reti

00000f84 <__vector_2>:
ISR (INT1_vect)        //External interrupt_one ISR
{
     f84:	1f 92       	push	r1
     f86:	0f 92       	push	r0
     f88:	0f b6       	in	r0, 0x3f	; 63
     f8a:	0f 92       	push	r0
     f8c:	11 24       	eor	r1, r1
     f8e:	2f 93       	push	r18
     f90:	3f 93       	push	r19
     f92:	4f 93       	push	r20
     f94:	5f 93       	push	r21
     f96:	6f 93       	push	r22
     f98:	7f 93       	push	r23
     f9a:	8f 93       	push	r24
     f9c:	9f 93       	push	r25
     f9e:	af 93       	push	r26
     fa0:	bf 93       	push	r27
     fa2:	ef 93       	push	r30
     fa4:	ff 93       	push	r31
	sto();
     fa6:	0e 94 99 07 	call	0xf32	; 0xf32 <_Z3stov>
}
     faa:	ff 91       	pop	r31
     fac:	ef 91       	pop	r30
     fae:	bf 91       	pop	r27
     fb0:	af 91       	pop	r26
     fb2:	9f 91       	pop	r25
     fb4:	8f 91       	pop	r24
     fb6:	7f 91       	pop	r23
     fb8:	6f 91       	pop	r22
     fba:	5f 91       	pop	r21
     fbc:	4f 91       	pop	r20
     fbe:	3f 91       	pop	r19
     fc0:	2f 91       	pop	r18
     fc2:	0f 90       	pop	r0
     fc4:	0f be       	out	0x3f, r0	; 63
     fc6:	0f 90       	pop	r0
     fc8:	1f 90       	pop	r1
     fca:	18 95       	reti

00000fcc <_Z4nextv>:

void next(){
	if(tracknumber<maxnumber){tracknumber=tracknumber+1; //increment file name,curb the filename to 3(for testing=3)
     fcc:	80 91 2a 07 	lds	r24, 0x072A	; 0x80072a <__data_end>
     fd0:	90 91 2b 07 	lds	r25, 0x072B	; 0x80072b <__data_end+0x1>
     fd4:	20 91 28 07 	lds	r18, 0x0728	; 0x800728 <maxnumber>
     fd8:	30 91 29 07 	lds	r19, 0x0729	; 0x800729 <maxnumber+0x1>
     fdc:	82 17       	cp	r24, r18
     fde:	93 07       	cpc	r25, r19
     fe0:	34 f4       	brge	.+12     	; 0xfee <_Z4nextv+0x22>
     fe2:	01 96       	adiw	r24, 0x01	; 1
     fe4:	90 93 2b 07 	sts	0x072B, r25	; 0x80072b <__data_end+0x1>
     fe8:	80 93 2a 07 	sts	0x072A, r24	; 0x80072a <__data_end>
     fec:	08 95       	ret
	}
	else{tracknumber=1;
     fee:	81 e0       	ldi	r24, 0x01	; 1
     ff0:	90 e0       	ldi	r25, 0x00	; 0
     ff2:	90 93 2b 07 	sts	0x072B, r25	; 0x80072b <__data_end+0x1>
     ff6:	80 93 2a 07 	sts	0x072A, r24	; 0x80072a <__data_end>
     ffa:	08 95       	ret

00000ffc <_Z3prev>:


}

void pre(){
	if(tracknumber>1){tracknumber=tracknumber-1; //increment file name,curb the filename to 3(for testing=3)
     ffc:	80 91 2a 07 	lds	r24, 0x072A	; 0x80072a <__data_end>
    1000:	90 91 2b 07 	lds	r25, 0x072B	; 0x80072b <__data_end+0x1>
    1004:	82 30       	cpi	r24, 0x02	; 2
    1006:	91 05       	cpc	r25, r1
    1008:	34 f0       	brlt	.+12     	; 0x1016 <_Z3prev+0x1a>
    100a:	01 97       	sbiw	r24, 0x01	; 1
    100c:	90 93 2b 07 	sts	0x072B, r25	; 0x80072b <__data_end+0x1>
    1010:	80 93 2a 07 	sts	0x072A, r24	; 0x80072a <__data_end>
    1014:	08 95       	ret
	}
	else{tracknumber=maxnumber;
    1016:	80 91 28 07 	lds	r24, 0x0728	; 0x800728 <maxnumber>
    101a:	90 91 29 07 	lds	r25, 0x0729	; 0x800729 <maxnumber+0x1>
    101e:	90 93 2b 07 	sts	0x072B, r25	; 0x80072b <__data_end+0x1>
    1022:	80 93 2a 07 	sts	0x072A, r24	; 0x80072a <__data_end>
    1026:	08 95       	ret

00001028 <_Z3deli>:
	}
}

void del(int ms){
	while(ms--){_delay_ms(1);}}
    1028:	9c 01       	movw	r18, r24
    102a:	21 50       	subi	r18, 0x01	; 1
    102c:	31 09       	sbc	r19, r1
    102e:	89 2b       	or	r24, r25
    1030:	41 f0       	breq	.+16     	; 0x1042 <_Z3deli+0x1a>
	#else
		//round up by default
		__ticks_dc = (uint32_t)(ceil(fabs(__tmp)));
	#endif

	__builtin_avr_delay_cycles(__ticks_dc);
    1032:	8f ec       	ldi	r24, 0xCF	; 207
    1034:	97 e0       	ldi	r25, 0x07	; 7
    1036:	01 97       	sbiw	r24, 0x01	; 1
    1038:	f1 f7       	brne	.-4      	; 0x1036 <_Z3deli+0xe>
    103a:	00 c0       	rjmp	.+0      	; 0x103c <_Z3deli+0x14>
    103c:	00 00       	nop
    103e:	c9 01       	movw	r24, r18
    1040:	f3 cf       	rjmp	.-26     	; 0x1028 <_Z3deli>
    1042:	08 95       	ret

00001044 <_Z7Piratesv>:

	int Pirates()
	{
    1044:	cf 93       	push	r28
    1046:	df 93       	push	r29
		const int totalNotes = sizeof(notes) / sizeof(int);
		// Loop through each note
		for (int i = 0; i < totalNotes; i++)
    1048:	c0 e0       	ldi	r28, 0x00	; 0
    104a:	d0 e0       	ldi	r29, 0x00	; 0
    104c:	cb 3c       	cpi	r28, 0xCB	; 203
    104e:	d1 05       	cpc	r29, r1
    1050:	2c f5       	brge	.+74     	; 0x109c <_Z7Piratesv+0x58>
		{if (var==0){
    1052:	80 91 2c 07 	lds	r24, 0x072C	; 0x80072c <var>
    1056:	90 91 2d 07 	lds	r25, 0x072D	; 0x80072d <var+0x1>
    105a:	89 2b       	or	r24, r25
    105c:	19 f4       	brne	.+6      	; 0x1064 <_Z7Piratesv+0x20>
		return 0;}
    105e:	80 e0       	ldi	r24, 0x00	; 0
    1060:	90 e0       	ldi	r25, 0x00	; 0
    1062:	1c c0       	rjmp	.+56     	; 0x109c <_Z7Piratesv+0x58>
		
		
		const int currentNote = notes[i];
    1064:	ce 01       	movw	r24, r28
    1066:	88 0f       	add	r24, r24
    1068:	99 1f       	adc	r25, r25
    106a:	fc 01       	movw	r30, r24
    106c:	ee 56       	subi	r30, 0x6E	; 110
    106e:	fa 4f       	sbci	r31, 0xFA	; 250
    1070:	20 81       	ld	r18, Z
    1072:	31 81       	ldd	r19, Z+1	; 0x01
		int wait = durations[i] / songSpeed;
    1074:	fc 01       	movw	r30, r24
    1076:	e4 50       	subi	r30, 0x04	; 4
    1078:	fc 4f       	sbci	r31, 0xFC	; 252
    107a:	80 81       	ld	r24, Z
    107c:	91 81       	ldd	r25, Z+1	; 0x01
		// Play tone if currentNote is not 0 frequency, otherwise pause (noTone)
		if (currentNote !=0){
    107e:	21 15       	cp	r18, r1
    1080:	31 05       	cpc	r19, r1
    1082:	41 f0       	breq	.+16     	; 0x1094 <_Z7Piratesv+0x50>
		play_tone( notes[i], wait/10); }
    1084:	6a e0       	ldi	r22, 0x0A	; 10
    1086:	70 e0       	ldi	r23, 0x00	; 0
    1088:	0e 94 19 09 	call	0x1232	; 0x1232 <__divmodhi4>
    108c:	c9 01       	movw	r24, r18
    108e:	0e 94 53 00 	call	0xa6	; 0xa6 <_Z9play_tonejh>
    1092:	02 c0       	rjmp	.+4      	; 0x1098 <_Z7Piratesv+0x54>
		
		// delay is used to wait for tone to finish playing before moving to next loop
		else{del(wait);}
    1094:	0e 94 14 08 	call	0x1028	; 0x1028 <_Z3deli>

	int Pirates()
	{
		const int totalNotes = sizeof(notes) / sizeof(int);
		// Loop through each note
		for (int i = 0; i < totalNotes; i++)
    1098:	21 96       	adiw	r28, 0x01	; 1
    109a:	d8 cf       	rjmp	.-80     	; 0x104c <_Z7Piratesv+0x8>
		
		// delay is used to wait for tone to finish playing before moving to next loop
		else{del(wait);}

	}
}
    109c:	df 91       	pop	r29
    109e:	cf 91       	pop	r28
    10a0:	08 95       	ret

000010a2 <_Z13GameOfThronesv>:
int GameOfThrones(){
    10a2:	cf 93       	push	r28
    10a4:	df 93       	push	r29
	
	const int totalNotes = sizeof(notes_G) / sizeof(int);
	// Loop through each note
	for (int i = 0; i < totalNotes; i++)
    10a6:	c0 e0       	ldi	r28, 0x00	; 0
    10a8:	d0 e0       	ldi	r29, 0x00	; 0
    10aa:	ce 35       	cpi	r28, 0x5E	; 94
    10ac:	d1 05       	cpc	r29, r1
    10ae:	2c f5       	brge	.+74     	; 0x10fa <_Z13GameOfThronesv+0x58>
	{if (var==0){
    10b0:	80 91 2c 07 	lds	r24, 0x072C	; 0x80072c <var>
    10b4:	90 91 2d 07 	lds	r25, 0x072D	; 0x80072d <var+0x1>
    10b8:	89 2b       	or	r24, r25
    10ba:	19 f4       	brne	.+6      	; 0x10c2 <_Z13GameOfThronesv+0x20>
	return 0;}
    10bc:	80 e0       	ldi	r24, 0x00	; 0
    10be:	90 e0       	ldi	r25, 0x00	; 0
    10c0:	1c c0       	rjmp	.+56     	; 0x10fa <_Z13GameOfThronesv+0x58>

	const int currentNote = notes_G[i];
    10c2:	ce 01       	movw	r24, r28
    10c4:	88 0f       	add	r24, r24
    10c6:	99 1f       	adc	r25, r25
    10c8:	fc 01       	movw	r30, r24
    10ca:	e0 5c       	subi	r30, 0xC0	; 192
    10cc:	fc 4f       	sbci	r31, 0xFC	; 252
    10ce:	20 81       	ld	r18, Z
    10d0:	31 81       	ldd	r19, Z+1	; 0x01
	int wait = duration_G[i] / songSpeed_G;
    10d2:	fc 01       	movw	r30, r24
    10d4:	ec 57       	subi	r30, 0x7C	; 124
    10d6:	fd 4f       	sbci	r31, 0xFD	; 253
    10d8:	80 81       	ld	r24, Z
    10da:	91 81       	ldd	r25, Z+1	; 0x01
	// Play tone if currentNote is not 0 frequency, otherwise pause (noTone)
	if (currentNote != 0)
    10dc:	21 15       	cp	r18, r1
    10de:	31 05       	cpc	r19, r1
    10e0:	41 f0       	breq	.+16     	; 0x10f2 <_Z13GameOfThronesv+0x50>
	{
		play_tone( notes_G[i], wait/10);// tone(pin, frequency, duration)
    10e2:	6a e0       	ldi	r22, 0x0A	; 10
    10e4:	70 e0       	ldi	r23, 0x00	; 0
    10e6:	0e 94 19 09 	call	0x1232	; 0x1232 <__divmodhi4>
    10ea:	c9 01       	movw	r24, r18
    10ec:	0e 94 53 00 	call	0xa6	; 0xa6 <_Z9play_tonejh>
    10f0:	02 c0       	rjmp	.+4      	; 0x10f6 <_Z13GameOfThronesv+0x54>
	}
	else
	{
		del(wait);
    10f2:	0e 94 14 08 	call	0x1028	; 0x1028 <_Z3deli>
}
int GameOfThrones(){
	
	const int totalNotes = sizeof(notes_G) / sizeof(int);
	// Loop through each note
	for (int i = 0; i < totalNotes; i++)
    10f6:	21 96       	adiw	r28, 0x01	; 1
    10f8:	d8 cf       	rjmp	.-80     	; 0x10aa <_Z13GameOfThronesv+0x8>
	// delay is used to wait for tone to finish playing before moving to next loop

}


}
    10fa:	df 91       	pop	r29
    10fc:	cf 91       	pop	r28
    10fe:	08 95       	ret

00001100 <_Z9despacitov>:
int despacito(){
    1100:	cf 93       	push	r28
    1102:	df 93       	push	r29
	
	const int totalNotes = sizeof(notes_G) / sizeof(int);
	// Loop through each note
	for (int i = 0; i < totalNotes; i++)
    1104:	c0 e0       	ldi	r28, 0x00	; 0
    1106:	d0 e0       	ldi	r29, 0x00	; 0
    1108:	ce 35       	cpi	r28, 0x5E	; 94
    110a:	d1 05       	cpc	r29, r1
    110c:	5c f5       	brge	.+86     	; 0x1164 <_Z9despacitov+0x64>
	{if (var==0){
    110e:	80 91 2c 07 	lds	r24, 0x072C	; 0x80072c <var>
    1112:	90 91 2d 07 	lds	r25, 0x072D	; 0x80072d <var+0x1>
    1116:	89 2b       	or	r24, r25
    1118:	19 f4       	brne	.+6      	; 0x1120 <_Z9despacitov+0x20>
	return 0;}
    111a:	80 e0       	ldi	r24, 0x00	; 0
    111c:	90 e0       	ldi	r25, 0x00	; 0
    111e:	22 c0       	rjmp	.+68     	; 0x1164 <_Z9despacitov+0x64>

	const int currentNote = notes_G[i];
    1120:	ce 01       	movw	r24, r28
    1122:	88 0f       	add	r24, r24
    1124:	99 1f       	adc	r25, r25
    1126:	fc 01       	movw	r30, r24
    1128:	e0 5c       	subi	r30, 0xC0	; 192
    112a:	fc 4f       	sbci	r31, 0xFC	; 252
    112c:	20 81       	ld	r18, Z
    112e:	31 81       	ldd	r19, Z+1	; 0x01
	int wait = noteDurations[i] / songSpeed_G;
    1130:	fc 01       	movw	r30, r24
    1132:	e0 50       	subi	r30, 0x00	; 0
    1134:	ff 4f       	sbci	r31, 0xFF	; 255
    1136:	60 81       	ld	r22, Z
    1138:	71 81       	ldd	r23, Z+1	; 0x01
	// Play tone if currentNote is not 0 frequency, otherwise pause (noTone)
	if (currentNote != 0)
    113a:	23 2b       	or	r18, r19
    113c:	71 f0       	breq	.+28     	; 0x115a <_Z9despacitov+0x5a>
	{
		play_tone( melody[i], ((2000/wait)/10));// tone(pin, frequency, duration)
    113e:	88 ec       	ldi	r24, 0xC8	; 200
    1140:	90 e0       	ldi	r25, 0x00	; 0
    1142:	0e 94 19 09 	call	0x1232	; 0x1232 <__divmodhi4>
    1146:	fe 01       	movw	r30, r28
    1148:	ee 0f       	add	r30, r30
    114a:	ff 1f       	adc	r31, r31
    114c:	e6 56       	subi	r30, 0x66	; 102
    114e:	fe 4f       	sbci	r31, 0xFE	; 254
    1150:	80 81       	ld	r24, Z
    1152:	91 81       	ldd	r25, Z+1	; 0x01
    1154:	0e 94 53 00 	call	0xa6	; 0xa6 <_Z9play_tonejh>
    1158:	03 c0       	rjmp	.+6      	; 0x1160 <_Z9despacitov+0x60>
	}
	else
	{
		del(wait);
    115a:	cb 01       	movw	r24, r22
    115c:	0e 94 14 08 	call	0x1028	; 0x1028 <_Z3deli>
}
int despacito(){
	
	const int totalNotes = sizeof(notes_G) / sizeof(int);
	// Loop through each note
	for (int i = 0; i < totalNotes; i++)
    1160:	21 96       	adiw	r28, 0x01	; 1
    1162:	d2 cf       	rjmp	.-92     	; 0x1108 <_Z9despacitov+0x8>
	// delay is used to wait for tone to finish playing before moving to next loop

}


}
    1164:	df 91       	pop	r29
    1166:	cf 91       	pop	r28
    1168:	08 95       	ret

0000116a <_Z5play_v>:
void play_(){
	if(tracknumber ==1){Pirates();
    116a:	80 91 2a 07 	lds	r24, 0x072A	; 0x80072a <__data_end>
    116e:	90 91 2b 07 	lds	r25, 0x072B	; 0x80072b <__data_end+0x1>
    1172:	81 30       	cpi	r24, 0x01	; 1
    1174:	91 05       	cpc	r25, r1
    1176:	19 f4       	brne	.+6      	; 0x117e <_Z5play_v+0x14>
    1178:	0e 94 22 08 	call	0x1044	; 0x1044 <_Z7Piratesv>
    117c:	08 95       	ret
	}
	else{if(tracknumber==2){GameOfThrones();
    117e:	82 30       	cpi	r24, 0x02	; 2
    1180:	91 05       	cpc	r25, r1
    1182:	19 f4       	brne	.+6      	; 0x118a <_Z5play_v+0x20>
    1184:	0e 94 51 08 	call	0x10a2	; 0x10a2 <_Z13GameOfThronesv>
    1188:	08 95       	ret
		}else{if(tracknumber==3){despacito();}}}
    118a:	03 97       	sbiw	r24, 0x03	; 3
    118c:	11 f4       	brne	.+4      	; 0x1192 <_Z5play_v+0x28>
    118e:	0e 94 80 08 	call	0x1100	; 0x1100 <_Z9despacitov>
    1192:	08 95       	ret

00001194 <main>:
#include "tone.h"


int main() {
	// internal RC oscillator calibration for 8MHz.
	OSCCAL = 176;
    1194:	80 eb       	ldi	r24, 0xB0	; 176
    1196:	80 93 66 00 	sts	0x0066, r24	; 0x800066 <__TEXT_REGION_LENGTH__+0x7f8066>

	// enable the piezo as output
	DDRD |= (1<<PD1);
    119a:	8a b1       	in	r24, 0x0a	; 10
    119c:	82 60       	ori	r24, 0x02	; 2
    119e:	8a b9       	out	0x0a, r24	; 10
	
	// enable internal pullup on PA7 (the button)
	PORTD |= (1<<PD7)|(1<<PD6)|(1<<PD2)|(1<<PD3);
    11a0:	8b b1       	in	r24, 0x0b	; 11
    11a2:	8c 6c       	ori	r24, 0xCC	; 204
    11a4:	8b b9       	out	0x0b, r24	; 11
	
	EICRA |= (1 << ISC01)|(1 << ISC11);    // set INT0 to trigger on ANY logic change
    11a6:	e9 e6       	ldi	r30, 0x69	; 105
    11a8:	f0 e0       	ldi	r31, 0x00	; 0
    11aa:	80 81       	ld	r24, Z
    11ac:	8a 60       	ori	r24, 0x0A	; 10
    11ae:	80 83       	st	Z, r24
	EIMSK |= (1 << INT0)|(1 << INT1);
    11b0:	8d b3       	in	r24, 0x1d	; 29
    11b2:	83 60       	ori	r24, 0x03	; 3
    11b4:	8d bb       	out	0x1d, r24	; 29
	sei();
    11b6:	78 94       	sei

	tracknumber=1;
    11b8:	81 e0       	ldi	r24, 0x01	; 1
    11ba:	90 e0       	ldi	r25, 0x00	; 0
    11bc:	90 93 2b 07 	sts	0x072B, r25	; 0x80072b <__data_end+0x1>
    11c0:	80 93 2a 07 	sts	0x072A, r24	; 0x80072a <__data_end>
	

	// loop forever!
	while(1) {
		if (var==1){play_();}
    11c4:	80 91 2c 07 	lds	r24, 0x072C	; 0x80072c <var>
    11c8:	90 91 2d 07 	lds	r25, 0x072D	; 0x80072d <var+0x1>
    11cc:	01 97       	sbiw	r24, 0x01	; 1
    11ce:	11 f4       	brne	.+4      	; 0x11d4 <main+0x40>
    11d0:	0e 94 b5 08 	call	0x116a	; 0x116a <_Z5play_v>
		
		if ((PIND&(1<<PD6))==0){
    11d4:	4e 99       	sbic	0x09, 6	; 9
    11d6:	0b c0       	rjmp	.+22     	; 0x11ee <main+0x5a>
			next();
    11d8:	0e 94 e6 07 	call	0xfcc	; 0xfcc <_Z4nextv>
    11dc:	2f ef       	ldi	r18, 0xFF	; 255
    11de:	81 ee       	ldi	r24, 0xE1	; 225
    11e0:	94 e0       	ldi	r25, 0x04	; 4
    11e2:	21 50       	subi	r18, 0x01	; 1
    11e4:	80 40       	sbci	r24, 0x00	; 0
    11e6:	90 40       	sbci	r25, 0x00	; 0
    11e8:	e1 f7       	brne	.-8      	; 0x11e2 <main+0x4e>
    11ea:	00 c0       	rjmp	.+0      	; 0x11ec <main+0x58>
    11ec:	00 00       	nop
			
			_delay_ms(200);
		}
		
		if ((PIND&(1<<PD7))==0){
    11ee:	4f 99       	sbic	0x09, 7	; 9
    11f0:	e9 cf       	rjmp	.-46     	; 0x11c4 <main+0x30>
			pre();
    11f2:	0e 94 fe 07 	call	0xffc	; 0xffc <_Z3prev>
    11f6:	2f ef       	ldi	r18, 0xFF	; 255
    11f8:	81 ee       	ldi	r24, 0xE1	; 225
    11fa:	94 e0       	ldi	r25, 0x04	; 4
    11fc:	21 50       	subi	r18, 0x01	; 1
    11fe:	80 40       	sbci	r24, 0x00	; 0
    1200:	90 40       	sbci	r25, 0x00	; 0
    1202:	e1 f7       	brne	.-8      	; 0x11fc <main+0x68>
    1204:	00 c0       	rjmp	.+0      	; 0x1206 <main+0x72>
    1206:	00 00       	nop
    1208:	dd cf       	rjmp	.-70     	; 0x11c4 <main+0x30>

0000120a <__udivmodhi4>:
    120a:	aa 1b       	sub	r26, r26
    120c:	bb 1b       	sub	r27, r27
    120e:	51 e1       	ldi	r21, 0x11	; 17
    1210:	07 c0       	rjmp	.+14     	; 0x1220 <__udivmodhi4_ep>

00001212 <__udivmodhi4_loop>:
    1212:	aa 1f       	adc	r26, r26
    1214:	bb 1f       	adc	r27, r27
    1216:	a6 17       	cp	r26, r22
    1218:	b7 07       	cpc	r27, r23
    121a:	10 f0       	brcs	.+4      	; 0x1220 <__udivmodhi4_ep>
    121c:	a6 1b       	sub	r26, r22
    121e:	b7 0b       	sbc	r27, r23

00001220 <__udivmodhi4_ep>:
    1220:	88 1f       	adc	r24, r24
    1222:	99 1f       	adc	r25, r25
    1224:	5a 95       	dec	r21
    1226:	a9 f7       	brne	.-22     	; 0x1212 <__udivmodhi4_loop>
    1228:	80 95       	com	r24
    122a:	90 95       	com	r25
    122c:	bc 01       	movw	r22, r24
    122e:	cd 01       	movw	r24, r26
    1230:	08 95       	ret

00001232 <__divmodhi4>:
    1232:	97 fb       	bst	r25, 7
    1234:	07 2e       	mov	r0, r23
    1236:	16 f4       	brtc	.+4      	; 0x123c <__divmodhi4+0xa>
    1238:	00 94       	com	r0
    123a:	07 d0       	rcall	.+14     	; 0x124a <__divmodhi4_neg1>
    123c:	77 fd       	sbrc	r23, 7
    123e:	09 d0       	rcall	.+18     	; 0x1252 <__divmodhi4_neg2>
    1240:	0e 94 05 09 	call	0x120a	; 0x120a <__udivmodhi4>
    1244:	07 fc       	sbrc	r0, 7
    1246:	05 d0       	rcall	.+10     	; 0x1252 <__divmodhi4_neg2>
    1248:	3e f4       	brtc	.+14     	; 0x1258 <__divmodhi4_exit>

0000124a <__divmodhi4_neg1>:
    124a:	90 95       	com	r25
    124c:	81 95       	neg	r24
    124e:	9f 4f       	sbci	r25, 0xFF	; 255
    1250:	08 95       	ret

00001252 <__divmodhi4_neg2>:
    1252:	70 95       	com	r23
    1254:	61 95       	neg	r22
    1256:	7f 4f       	sbci	r23, 0xFF	; 255

00001258 <__divmodhi4_exit>:
    1258:	08 95       	ret

0000125a <__umulhisi3>:
    125a:	a2 9f       	mul	r26, r18
    125c:	b0 01       	movw	r22, r0
    125e:	b3 9f       	mul	r27, r19
    1260:	c0 01       	movw	r24, r0
    1262:	a3 9f       	mul	r26, r19
    1264:	70 0d       	add	r23, r0
    1266:	81 1d       	adc	r24, r1
    1268:	11 24       	eor	r1, r1
    126a:	91 1d       	adc	r25, r1
    126c:	b2 9f       	mul	r27, r18
    126e:	70 0d       	add	r23, r0
    1270:	81 1d       	adc	r24, r1
    1272:	11 24       	eor	r1, r1
    1274:	91 1d       	adc	r25, r1
    1276:	08 95       	ret

00001278 <_exit>:
    1278:	f8 94       	cli

0000127a <__stop_program>:
    127a:	ff cf       	rjmp	.-2      	; 0x127a <__stop_program>
